     1                                  ; ============================================================================
     2                                  ; Simple OS Shell — minimal command interpreter
     3                                  ; ============================================================================
     4                                  ; Assembled as flat binary, loaded at 0800:0100 by boot sector
     5                                  ; Commands: DIR, ECHO, CLS, VER, and .COM file execution
     6                                  ;
     7                                  ; Disk layout (360K FAT12):
     8                                  ;   Sector 0:     Boot sector
     9                                  ;   Sectors 1-2:  FAT1
    10                                  ;   Sectors 3-4:  FAT2
    11                                  ;   Sectors 5-11: Root directory (112 entries)
    12                                  ;   Sectors 12+:  Data area (cluster 2 = sector 12)
    13                                  
    14                                  	cpu	8086
    15                                  	org	0x0100		; .COM file format
    16                                  
    17                                  SHELL_SEG	equ	0x0800	; Segment where shell is loaded
    18                                  PROG_SEG	equ	0x2000	; Segment where programs are loaded
    19                                  ROOT_DIR_SEC	equ	5	; First sector of root directory
    20                                  ROOT_DIR_SECS	equ	7	; Number of root directory sectors
    21                                  DATA_START_SEC	equ	12	; First data sector (cluster 2)
    22                                  SECS_PER_CLUST	equ	2	; Sectors per cluster
    23                                  FAT_SEC		equ	1	; First FAT sector
    24                                  TOTAL_SECS	equ	720	; Total sectors (360K)
    25                                  MAX_CMD_LEN	equ	80
    26                                  MAX_DIR_ENTRIES	equ	112	; Root dir entries (subdir = 32 per cluster)
    27                                  DIR_BUF_SIZE	equ	ROOT_DIR_SECS * 512	; 3584 bytes
    28                                  
    29                                  ; ============================================================================
    30                                  ; Entry point
    31                                  ; ============================================================================
    32                                  start:
    33                                  	; Set up our own stack
    34 00000000 FA                      	cli
    35 00000001 B80008                  	mov	ax, SHELL_SEG
    36 00000004 8ED0                    	mov	ss, ax
    37 00000006 BCFEFF                  	mov	sp, 0xFFFE
    38 00000009 FB                      	sti
    39                                  
    40                                  	; Set DS = CS = SHELL_SEG
    41 0000000A 0E                      	push	cs
    42 0000000B 1F                      	pop	ds
    43                                  
    44                                  	; Install interrupt vectors
    45 0000000C 31C0                    	xor	ax, ax
    46 0000000E 8EC0                    	mov	es, ax
    47                                  	; INT 20h — program terminate
    48 00000010 26C7068000[5338]        	mov	word [es:0x80], int20_handler
    49 00000017 26C70682000008          	mov	word [es:0x82], SHELL_SEG
    50                                  	; INT 21h — DOS services
    51 0000001E 26C7068400[261D]        	mov	word [es:0x84], int21_handler
    52 00000025 26C70686000008          	mov	word [es:0x86], SHELL_SEG
    53                                  	; INT 22h — Terminate address (goes through cleanup handler)
    54 0000002C 26C7068800[5338]        	mov	word [es:0x88], int20_handler
    55 00000033 26C7068A000008          	mov	word [es:0x8A], SHELL_SEG
    56                                  	; INT 23h — Ctrl-C handler
    57 0000003A 26C7068C00[AE38]        	mov	word [es:0x8C], int23_handler
    58 00000041 26C7068E000008          	mov	word [es:0x8E], SHELL_SEG
    59                                  	; INT 24h — Critical error handler
    60 00000048 26C7069000[BF38]        	mov	word [es:0x90], int24_handler
    61 0000004F 26C70692000008          	mov	word [es:0x92], SHELL_SEG
    62                                  
    63                                  	; Initialize memory management — create MCB chain
    64                                  	; First MCB at PROG_SEG (0x2000), one large free block
    65                                  	; Size = (0xA000 - 0x2000 - 1) paragraphs = 0x7FFF paragraphs
    66 00000056 B80020                  	mov	ax, PROG_SEG
    67 00000059 8EC0                    	mov	es, ax
    68 0000005B 26C60600005A            	mov	byte [es:0x00], 'Z'	; Last block
    69 00000061 26C70601000000          	mov	word [es:0x01], 0	; Free (no owner)
    70 00000068 26C7060300FF7F          	mov	word [es:0x03], 0xA000 - PROG_SEG - 1 ; Size in paragraphs
    71 0000006F C706[143E]0020          	mov	word [mcb_first], PROG_SEG
    72                                  
    73                                  	; Restore ES
    74 00000075 B80008                  	mov	ax, SHELL_SEG
    75 00000078 8EC0                    	mov	es, ax
    76                                  
    77                                  	; Allocate environment block (16 paragraphs = 256 bytes)
    78 0000007A BB1000                  	mov	bx, 16
    79 0000007D B448                    	mov	ah, 0x48
    80 0000007F CD21                    	int	0x21
    81 00000081 7235                    	jc	.env_failed
    82 00000083 A3[2D3E]                	mov	[env_seg], ax
    83                                  	; Fill environment block
    84 00000086 8EC0                    	mov	es, ax
    85 00000088 31FF                    	xor	di, di
    86                                  	; COMSPEC=A:\SHELL.COM
    87 0000008A BE[333E]                	mov	si, env_comspec
    88 0000008D E81E00                  	call	.env_copy_str
    89                                  	; PATH=A:	mov	si, env_path
    91 00000090 E81B00                  	call	.env_copy_str
    92                                  	; PROMPT=$P$G
    93 00000093 BE[513E]                	mov	si, env_prompt
    94 00000096 E81500                  	call	.env_copy_str
    95                                  	; Double null terminates the environment
    96 00000099 26C60500                	mov	byte [es:di], 0
    97 0000009D 47                      	inc	di
    98                                  	; Word count (usually 1) + program name
    99 0000009E 26C7050100              	mov	word [es:di], 1
   100 000000A3 83C702                  	add	di, 2
   101                                  	; Program name ASCIIZ
   102 000000A6 BE[5D3E]                	mov	si, env_progname
   103 000000A9 E80200                  	call	.env_copy_str
   104 000000AC EB10                    	jmp	.env_done
   105                                  .env_copy_str:
   106 000000AE AC                      	lodsb
   107 000000AF 268805                  	mov	[es:di], al
   108 000000B2 47                      	inc	di
   109 000000B3 08C0                    	or	al, al
   110 000000B5 75F7                    	jnz	.env_copy_str
   111 000000B7 C3                      	ret
   112                                  .env_failed:
   113 000000B8 C706[2D3E]0000          	mov	word [env_seg], 0
   114                                  .env_done:
   115                                  	; Restore ES/DS
   116 000000BE B80008                  	mov	ax, SHELL_SEG
   117 000000C1 8EC0                    	mov	es, ax
   118 000000C3 8ED8                    	mov	ds, ax
   119                                  
   120                                  	; Run AUTOEXEC.BAT if it exists
   121 000000C5 BE[EF3B]                	mov	si, autoexec_name
   122 000000C8 E80815                  	call	run_batch
   123                                  
   124                                  ; ============================================================================
   125                                  ; Main command loop
   126                                  ; ============================================================================
   127                                  cmd_loop:
   128                                  	; Reset segments
   129 000000CB B80008                  	mov	ax, SHELL_SEG
   130 000000CE 8ED8                    	mov	ds, ax
   131 000000D0 8EC0                    	mov	es, ax
   132 000000D2 FA                      	cli
   133 000000D3 8ED0                    	mov	ss, ax
   134 000000D5 BCFEFF                  	mov	sp, 0xFFFE
   135 000000D8 FB                      	sti
   136                                  
   137                                  	; Check if we're in batch mode
   138 000000D9 803E[0E3E]00            	cmp	byte [batch_active], 0
   139 000000DE 7403                    	je	.cmd_interactive
   140                                  	; Get next line from batch buffer
   141 000000E0 E97A15                  	jmp	batch_next_line
   142                                  
   143                                  .cmd_interactive:
   144                                  	; Print prompt with current path
   145 000000E3 B00D                    	mov	al, 0x0D
   146 000000E5 B40E                    	mov	ah, 0x0E
   147 000000E7 CD10                    	int	0x10
   148 000000E9 B00A                    	mov	al, 0x0A
   149 000000EB B40E                    	mov	ah, 0x0E
   150 000000ED CD10                    	int	0x10
   151 000000EF A0[083E]                	mov	al, [cur_drive]
   152 000000F2 0441                    	add	al, 'A'		; 0='A', 1='B'
   153 000000F4 B40E                    	mov	ah, 0x0E
   154 000000F6 CD10                    	int	0x10
   155 000000F8 B03A                    	mov	al, ':'
   156 000000FA B40E                    	mov	ah, 0x0E
   157 000000FC CD10                    	int	0x10
   158                                  	; Print backslash (always shown)
   159 000000FE B05C                    	mov	al, '\'
   160 00000100 B40E                    	mov	ah, 0x0E
   161 00000102 CD10                    	int	0x10
   162                                  	; Print current path (if any)
   163 00000104 803E[073E]00            	cmp	byte [cur_dir_pathlen], 0
   164 00000109 7406                    	je	.prompt_done
   165 0000010B BE[C63D]                	mov	si, cur_dir_path
   166 0000010E E8B137                  	call	print_string
   167                                  .prompt_done:
   168 00000111 B03E                    	mov	al, '>'
   169 00000113 B40E                    	mov	ah, 0x0E
   170 00000115 CD10                    	int	0x10
   171                                  
   172                                  	; Read command line
   173 00000117 BF[9F3C]                	mov	di, cmd_buffer
   174 0000011A E8B837                  	call	read_line
   175                                  
   176                                  	; Skip leading spaces
   177 0000011D BE[9F3C]                	mov	si, cmd_buffer
   178 00000120 E80138                  	call	skip_spaces
   179                                  
   180                                  	; Empty line?
   181 00000123 803C00                  	cmp	byte [si], 0
   182 00000126 74A3                    	je	cmd_loop
   183                                  
   184                                  cmd_dispatch:
   185                                  	; Check for built-in commands
   186 00000128 BF[6D3C]                	mov	di, cmd_dir
   187 0000012B E8FF37                  	call	str_compare_cmd
   188 0000012E 7503E90A01              	je	do_dir
   189                                  
   190 00000133 BF[713C]                	mov	di, cmd_echo
   191 00000136 E8F437                  	call	str_compare_cmd
   192 00000139 7503E94D06              	je	do_echo
   193                                  
   194 0000013E BF[763C]                	mov	di, cmd_cls
   195 00000141 E8E937                  	call	str_compare_cmd
   196 00000144 7503E95706              	je	do_cls
   197                                  
   198 00000149 BF[7A3C]                	mov	di, cmd_ver
   199 0000014C E8DE37                  	call	str_compare_cmd
   200 0000014F 7503E96606              	je	do_ver
   201                                  
   202 00000154 BF[7E3C]                	mov	di, cmd_type
   203 00000157 E8D337                  	call	str_compare_cmd
   204 0000015A 7503E96406              	je	do_type
   205                                  
   206 0000015F BF[833C]                	mov	di, cmd_del
   207 00000162 E8C837                  	call	str_compare_cmd
   208 00000165 7503E93C07              	je	do_del
   209                                  
   210 0000016A BF[873C]                	mov	di, cmd_ren
   211 0000016D E8BD37                  	call	str_compare_cmd
   212 00000170 7503E92409              	je	do_ren
   213                                  
   214 00000175 BF[8B3C]                	mov	di, cmd_copy
   215 00000178 E8B237                  	call	str_compare_cmd
   216 0000017B 7503E9DA09              	je	do_copy
   217                                  
   218 00000180 BF[903C]                	mov	di, cmd_cd
   219 00000183 E8A737                  	call	str_compare_cmd
   220 00000186 7503E9D30C              	je	do_cd
   221                                  
   222 0000018B BF[933C]                	mov	di, cmd_mkdir
   223 0000018E E89C37                  	call	str_compare_cmd
   224 00000191 7503E9DC0E              	je	do_mkdir
   225                                  
   226 00000196 BF[993C]                	mov	di, cmd_rmdir
   227 00000199 E89137                  	call	str_compare_cmd
   228 0000019C 7503E94010              	je	do_rmdir
   229                                  
   230                                  	; Check for drive switch (A: or B:)
   231 000001A1 BE[9F3C]                	mov	si, cmd_buffer
   232 000001A4 E87D37                  	call	skip_spaces
   233 000001A7 807C013A                	cmp	byte [si+1], ':'
   234 000001AB 7544                    	jne	.not_drive_switch
   235 000001AD 807C0200                	cmp	byte [si+2], 0
   236 000001B1 7408                    	je	.maybe_drive
   237 000001B3 807C0220                	cmp	byte [si+2], ' '
   238 000001B7 7402                    	je	.maybe_drive
   239 000001B9 EB36                    	jmp	.not_drive_switch
   240                                  .maybe_drive:
   241 000001BB 8A04                    	mov	al, [si]
   242 000001BD 3C61                    	cmp	al, 'a'
   243 000001BF 7206                    	jb	.check_upper_drv
   244 000001C1 3C7A                    	cmp	al, 'z'
   245 000001C3 772C                    	ja	.not_drive_switch
   246 000001C5 2C20                    	sub	al, 0x20
   247                                  .check_upper_drv:
   248 000001C7 3C41                    	cmp	al, 'A'
   249 000001C9 7406                    	je	.switch_a
   250 000001CB 3C42                    	cmp	al, 'B'
   251 000001CD 7412                    	je	.switch_b
   252 000001CF EB20                    	jmp	.not_drive_switch
   253                                  .switch_a:
   254 000001D1 E82611                  	call	save_drive_state	; Save current drive's state
   255 000001D4 C606[083E]00            	mov	byte [cur_drive], 0
   256 000001D9 B000                    	mov	al, 0
   257 000001DB E86611                  	call	load_drive_state	; Load drive A's state
   258 000001DE E9EAFE                  	jmp	cmd_loop
   259                                  .switch_b:
   260 000001E1 E81611                  	call	save_drive_state	; Save current drive's state
   261 000001E4 C606[083E]01            	mov	byte [cur_drive], 1
   262 000001E9 B001                    	mov	al, 1
   263 000001EB E85611                  	call	load_drive_state	; Load drive B's state
   264 000001EE E9DAFE                  	jmp	cmd_loop
   265                                  .not_drive_switch:
   266                                  
   267                                  	; Not a built-in — check for .BAT file first, then try .COM
   268                                  	; Check if the command has .BAT extension
   269 000001F1 BE[9F3C]                	mov	si, cmd_buffer
   270 000001F4 E82D37                  	call	skip_spaces
   271 000001F7 56                      	push	si
   272                                  	; Scan for ".BAT" or ".bat"
   273 000001F8 89F7                    	mov	di, si
   274                                  .check_bat_ext:
   275 000001FA 8A05                    	mov	al, [di]
   276 000001FC 3C00                    	cmp	al, 0
   277 000001FE 7439                    	je	.not_bat
   278 00000200 3C20                    	cmp	al, ' '
   279 00000202 7435                    	je	.not_bat
   280 00000204 3C2E                    	cmp	al, '.'
   281 00000206 7403                    	je	.found_dot
   282 00000208 47                      	inc	di
   283 00000209 EBEF                    	jmp	.check_bat_ext
   284                                  .found_dot:
   285                                  	; Check if extension is BAT
   286 0000020B 47                      	inc	di
   287 0000020C 8A05                    	mov	al, [di]
   288 0000020E 3C42                    	cmp	al, 'B'
   289 00000210 7406                    	je	.dot_b
   290 00000212 3C62                    	cmp	al, 'b'
   291 00000214 7402                    	je	.dot_b
   292 00000216 EB21                    	jmp	.not_bat
   293                                  .dot_b:
   294 00000218 47                      	inc	di
   295 00000219 8A05                    	mov	al, [di]
   296 0000021B 3C41                    	cmp	al, 'A'
   297 0000021D 7406                    	je	.dot_ba
   298 0000021F 3C61                    	cmp	al, 'a'
   299 00000221 7402                    	je	.dot_ba
   300 00000223 EB14                    	jmp	.not_bat
   301                                  .dot_ba:
   302 00000225 47                      	inc	di
   303 00000226 8A05                    	mov	al, [di]
   304 00000228 3C54                    	cmp	al, 'T'
   305 0000022A 7406                    	je	.is_bat
   306 0000022C 3C74                    	cmp	al, 't'
   307 0000022E 7402                    	je	.is_bat
   308 00000230 EB07                    	jmp	.not_bat
   309                                  .is_bat:
   310 00000232 5E                      	pop	si
   311 00000233 E89D13                  	call	run_batch
   312 00000236 E992FE                  	jmp	cmd_loop
   313                                  .not_bat:
   314 00000239 5E                      	pop	si
   315 0000023A E9A217                  	jmp	do_exec
   316                                  
   317                                  ; ============================================================================
   318                                  ; DIR — list root directory
   319                                  ; ============================================================================
   320                                  do_dir:
   321                                  	; Check for /W switch
   322 0000023D C606[F23E]00            	mov	byte [dir_wide], 0
   323 00000242 E8DF36                  	call	skip_spaces
   324 00000245 803C2F                  	cmp	byte [si], '/'
   325 00000248 7519                    	jne	.dir_no_switch
   326 0000024A 807C0157                	cmp	byte [si+1], 'W'
   327 0000024E 7408                    	je	.dir_set_wide
   328 00000250 807C0177                	cmp	byte [si+1], 'w'
   329 00000254 7402                    	je	.dir_set_wide
   330 00000256 EB0B                    	jmp	.dir_no_switch
   331                                  .dir_set_wide:
   332 00000258 C606[F23E]01            	mov	byte [dir_wide], 1
   333 0000025D 83C602                  	add	si, 2
   334 00000260 E8C136                  	call	skip_spaces
   335                                  .dir_no_switch:
   336 00000263 C606[073D]00            	mov	byte [wild_active], 0
   337                                  
   338                                  	; Check for optional path argument
   339 00000268 803C00                  	cmp	byte [si], 0
   340 0000026B 7503E98902              	je	.dir_cur		; No argument — use current directory
   341                                  
   342                                  	; Build header path by resolving the argument against cur_dir_path
   343                                  	; Start with a copy of cur_dir_path, then apply each component
   344 00000270 56                      	push	si
   345                                  
   346                                  	; Copy cur_dir_path to dir_hdr_path as starting point
   347 00000271 56                      	push	si
   348 00000272 BE[C63D]                	mov	si, cur_dir_path
   349 00000275 BF[F43E]                	mov	di, dir_hdr_path
   350                                  .dir_hdr_init:
   351 00000278 AC                      	lodsb
   352 00000279 AA                      	stosb
   353 0000027A 08C0                    	or	al, al
   354 0000027C 75FA                    	jnz	.dir_hdr_init
   355 0000027E 5E                      	pop	si
   356                                  
   357                                  	; Skip drive letter if present
   358 0000027F 807C013A                	cmp	byte [si+1], ':'
   359 00000283 7503                    	jne	.dir_hdr_no_drv
   360 00000285 83C602                  	add	si, 2
   361                                  .dir_hdr_no_drv:
   362                                  	; Check for absolute path
   363 00000288 803C5C                  	cmp	byte [si], '\'
   364 0000028B 7506                    	jne	.dir_hdr_components
   365 0000028D 46                      	inc	si
   366                                  	; Absolute — clear header path
   367 0000028E C606[F43E]00            	mov	byte [dir_hdr_path], 0
   368                                  
   369                                  .dir_hdr_components:
   370                                  	; Process each component
   371 00000293 803C00                  	cmp	byte [si], 0
   372 00000296 7503E9AD00              	je	.dir_hdr_final
   373 0000029B 803C20                  	cmp	byte [si], ' '
   374 0000029E 7503E9A500              	je	.dir_hdr_final
   375                                  
   376                                  	; Check for ".."
   377 000002A3 803C2E                  	cmp	byte [si], '.'
   378 000002A6 7563                    	jne	.dir_hdr_name
   379 000002A8 807C012E                	cmp	byte [si+1], '.'
   380 000002AC 7514                    	jne	.dir_hdr_check_dot
   381                                  	; Verify ".." ends with \, null, or space
   382 000002AE 807C025C                	cmp	byte [si+2], '\'
   383 000002B2 7427                    	je	.dir_hdr_dotdot
   384 000002B4 807C0200                	cmp	byte [si+2], 0
   385 000002B8 7421                    	je	.dir_hdr_dotdot
   386 000002BA 807C0220                	cmp	byte [si+2], ' '
   387 000002BE 741B                    	je	.dir_hdr_dotdot
   388 000002C0 EB49                    	jmp	.dir_hdr_name
   389                                  .dir_hdr_check_dot:
   390                                  	; Single "."
   391 000002C2 807C015C                	cmp	byte [si+1], '\'
   392 000002C6 740E                    	je	.dir_hdr_skipdot
   393 000002C8 807C0100                	cmp	byte [si+1], 0
   394 000002CC 747A                    	je	.dir_hdr_final
   395 000002CE 807C0120                	cmp	byte [si+1], ' '
   396 000002D2 7474                    	je	.dir_hdr_final
   397 000002D4 EB35                    	jmp	.dir_hdr_name
   398                                  .dir_hdr_skipdot:
   399 000002D6 83C602                  	add	si, 2			; skip ".\"
   400 000002D9 EBB8                    	jmp	.dir_hdr_components
   401                                  
   402                                  .dir_hdr_dotdot:
   403                                  	; Remove last component from dir_hdr_path
   404 000002DB 56                      	push	si
   405 000002DC BF[F43E]                	mov	di, dir_hdr_path
   406                                  	; Find end
   407 000002DF 89FE                    	mov	si, di
   408                                  .dir_hdr_dd_end:
   409 000002E1 803C00                  	cmp	byte [si], 0
   410 000002E4 7403                    	je	.dir_hdr_dd_scan
   411 000002E6 46                      	inc	si
   412 000002E7 EBF8                    	jmp	.dir_hdr_dd_end
   413                                  .dir_hdr_dd_scan:
   414 000002E9 4E                      	dec	si
   415 000002EA 39FE                    	cmp	si, di
   416 000002EC 720C                    	jb	.dir_hdr_dd_root
   417 000002EE 803C5C                  	cmp	byte [si], '\'
   418 000002F1 7402                    	je	.dir_hdr_dd_trunc
   419 000002F3 EBF4                    	jmp	.dir_hdr_dd_scan
   420                                  .dir_hdr_dd_trunc:
   421 000002F5 C60400                  	mov	byte [si], 0
   422 000002F8 EB05                    	jmp	.dir_hdr_dd_done
   423                                  .dir_hdr_dd_root:
   424 000002FA C606[F43E]00            	mov	byte [dir_hdr_path], 0
   425                                  .dir_hdr_dd_done:
   426 000002FF 5E                      	pop	si
   427 00000300 83C602                  	add	si, 2			; skip ".."
   428 00000303 803C5C                  	cmp	byte [si], '\'
   429 00000306 758B                    	jne	.dir_hdr_components
   430 00000308 46                      	inc	si			; skip trailing '\'
   431 00000309 EB88                    	jmp	.dir_hdr_components
   432                                  
   433                                  .dir_hdr_name:
   434                                  	; Append this component to dir_hdr_path
   435 0000030B BF[F43E]                	mov	di, dir_hdr_path
   436                                  .dir_hdr_find_end:
   437 0000030E 803D00                  	cmp	byte [di], 0
   438 00000311 7403                    	je	.dir_hdr_at_end
   439 00000313 47                      	inc	di
   440 00000314 EBF8                    	jmp	.dir_hdr_find_end
   441                                  .dir_hdr_at_end:
   442                                  	; Add separator if path not empty
   443 00000316 81FF[F43E]              	cmp	di, dir_hdr_path
   444 0000031A 7404                    	je	.dir_hdr_append
   445 0000031C C6055C                  	mov	byte [di], '\'
   446 0000031F 47                      	inc	di
   447                                  .dir_hdr_append:
   448 00000320 8A04                    	mov	al, [si]
   449 00000322 3C00                    	cmp	al, 0
   450 00000324 741F                    	je	.dir_hdr_comp_done
   451 00000326 3C20                    	cmp	al, ' '
   452 00000328 741B                    	je	.dir_hdr_comp_done
   453 0000032A 3C5C                    	cmp	al, '\'
   454 0000032C 7410                    	je	.dir_hdr_comp_sep
   455 0000032E 3C61                    	cmp	al, 'a'
   456 00000330 7206                    	jb	.dir_hdr_app_store
   457 00000332 3C7A                    	cmp	al, 'z'
   458 00000334 7702                    	ja	.dir_hdr_app_store
   459 00000336 2C20                    	sub	al, 0x20
   460                                  .dir_hdr_app_store:
   461 00000338 8805                    	mov	[di], al
   462 0000033A 46                      	inc	si
   463 0000033B 47                      	inc	di
   464 0000033C EBE2                    	jmp	.dir_hdr_append
   465                                  .dir_hdr_comp_sep:
   466 0000033E C60500                  	mov	byte [di], 0
   467 00000341 46                      	inc	si			; skip '\'
   468 00000342 E94EFF                  	jmp	.dir_hdr_components
   469                                  .dir_hdr_comp_done:
   470 00000345 C60500                  	mov	byte [di], 0
   471                                  
   472                                  .dir_hdr_final:
   473 00000348 5E                      	pop	si
   474                                  
   475                                  	; Check if the argument contains wildcards (* or ?)
   476 00000349 56                      	push	si
   477 0000034A C606[BF04]00            	mov	byte [.dir_has_wild], 0
   478                                  .dir_scan_wild:
   479 0000034F 8A04                    	mov	al, [si]
   480 00000351 3C00                    	cmp	al, 0
   481 00000353 7410                    	je	.dir_scan_done
   482 00000355 3C2A                    	cmp	al, '*'
   483 00000357 7407                    	je	.dir_found_wild
   484 00000359 3C3F                    	cmp	al, '?'
   485 0000035B 7403                    	je	.dir_found_wild
   486 0000035D 46                      	inc	si
   487 0000035E EBEF                    	jmp	.dir_scan_wild
   488                                  .dir_found_wild:
   489 00000360 C606[BF04]01            	mov	byte [.dir_has_wild], 1
   490                                  .dir_scan_done:
   491 00000365 5E                      	pop	si
   492                                  
   493                                  	; Header path already truncated at last separator above
   494                                  
   495 00000366 803E[BF04]01            	cmp	byte [.dir_has_wild], 1
   496 0000036B 747F                    	je	.dir_wildcard
   497                                  
   498                                  	; No wildcards — resolve as path
   499 0000036D E8D410                  	call	resolve_path
   500 00000370 7303E90D04              	jc	.dir_error
   501                                  
   502                                  	; Check if exec_fname is blank (path ended with \ or was just a drive)
   503                                  	; If so, list that directory. If not, the last component is a name —
   504                                  	; check if it's a directory and list it.
   505 00000375 803E[F03C]20            	cmp	byte [exec_fname], ' '
   506 0000037A 7503E96901              	je	.dir_resolved		; Blank name = list resolved dir
   507                                  
   508                                  	; exec_fname has a name — look it up, see if it's a directory
   509 0000037F E8DF11                  	call	read_resolved_dir
   510 00000382 7303E9FB03              	jc	.dir_error
   511 00000387 BE0040                  	mov	si, dir_buffer
   512 0000038A 8B0E[0B3E]              	mov	cx, [resolved_dir_entries]
   513                                  .dir_find_subdir:
   514 0000038E 8A04                    	mov	al, [si]
   515 00000390 3C00                    	cmp	al, 0
   516 00000392 741E                    	je	.dir_not_subdir		; Not found as subdir — try as filename filter
   517 00000394 3CE5                    	cmp	al, 0xE5
   518 00000396 7414                    	je	.dir_find_next
   519 00000398 F6440B10                	test	byte [si+11], 0x10	; Directory?
   520 0000039C 740E                    	jz	.dir_find_next
   521 0000039E 51                      	push	cx
   522 0000039F 56                      	push	si
   523 000003A0 BF[F03C]                	mov	di, exec_fname
   524 000003A3 B90B00                  	mov	cx, 11
   525 000003A6 F3A6                    	repe	cmpsb
   526 000003A8 5E                      	pop	si
   527 000003A9 59                      	pop	cx
   528 000003AA 7423                    	je	.dir_found_subdir
   529                                  .dir_find_next:
   530 000003AC 83C620                  	add	si, 32
   531 000003AF 49                      	dec	cx
   532 000003B0 75DC                    	jnz	.dir_find_subdir
   533                                  
   534                                  .dir_not_subdir:
   535                                  	; Not a directory — treat exec_fname as exact filename filter
   536                                  	; Strip filename from header path (keep only directory portion)
   537 000003B2 E80B01                  	call	.dir_hdr_strip_last
   538 000003B5 BE[F03C]                	mov	si, exec_fname
   539 000003B8 BF[FC3C]                	mov	di, wild_pattern
   540 000003BB B90B00                  	mov	cx, 11
   541 000003BE F3A4                    	rep	movsb
   542 000003C0 C606[073D]01            	mov	byte [wild_active], 1
   543                                  	; dir_buffer still has the resolved directory data
   544 000003C5 BE0040                  	mov	si, dir_buffer
   545 000003C8 8B0E[0B3E]              	mov	cx, [resolved_dir_entries]
   546 000003CC E94D01                  	jmp	.dir_start
   547                                  
   548                                  .dir_found_subdir:
   549                                  	; Update resolved to point into this subdirectory
   550 000003CF 8B441A                  	mov	ax, [si+26]
   551 000003D2 A3[093E]                	mov	[resolved_dir_cluster], ax
   552 000003D5 83F800                  	cmp	ax, 0
   553 000003D8 7509                    	jne	.dir_is_sub
   554 000003DA C706[0B3E]7000          	mov	word [resolved_dir_entries], MAX_DIR_ENTRIES
   555 000003E0 E90501                  	jmp	.dir_resolved
   556                                  .dir_is_sub:
   557 000003E3 C706[0B3E]2000          	mov	word [resolved_dir_entries], SECS_PER_CLUST * 512 / 32
   558 000003E9 E9FC00                  	jmp	.dir_resolved
   559                                  
   560                                  .dir_wildcard:
   561                                  	; Strip wildcard filename from header path
   562 000003EC E8D100                  	call	.dir_hdr_strip_last
   563                                  	; Parse wildcard pattern from the filename portion
   564                                  	; Find the last \ or : to split directory from pattern
   565 000003EF 56                      	push	si
   566 000003F0 89F7                    	mov	di, si		; DI = start of arg
   567 000003F2 31DB                    	xor	bx, bx		; BX = pointer to last separator (0=none)
   568                                  .dir_w_find_sep:
   569 000003F4 8A04                    	mov	al, [si]
   570 000003F6 3C00                    	cmp	al, 0
   571 000003F8 7411                    	je	.dir_w_sep_done
   572 000003FA 3C5C                    	cmp	al, '\'
   573 000003FC 7407                    	je	.dir_w_mark_sep
   574 000003FE 3C3A                    	cmp	al, ':'
   575 00000400 7403                    	je	.dir_w_mark_sep
   576 00000402 46                      	inc	si
   577 00000403 EBEF                    	jmp	.dir_w_find_sep
   578                                  .dir_w_mark_sep:
   579 00000405 8D5C01                  	lea	bx, [si+1]	; BX = char after separator
   580 00000408 46                      	inc	si
   581 00000409 EBE9                    	jmp	.dir_w_find_sep
   582                                  .dir_w_sep_done:
   583 0000040B 5E                      	pop	si
   584                                  
   585                                  	; BX = start of filename pattern (or 0 if no separator)
   586 0000040C 83FB00                  	cmp	bx, 0
   587 0000040F 750D                    	jne	.dir_w_has_dir
   588                                  	; No directory part — wildcard is the whole argument
   589 00000411 89F3                    	mov	bx, si		; pattern starts at SI
   590 00000413 56                      	push	si
   591 00000414 BF[FC3C]                	mov	di, wild_pattern
   592 00000417 E8DA14                  	call	parse_wildcard
   593 0000041A 5E                      	pop	si
   594 0000041B E98A00                  	jmp	.dir_cur_wild
   595                                  
   596                                  .dir_w_has_dir:
   597                                  	; Parse the wildcard pattern from BX
   598 0000041E 56                      	push	si
   599 0000041F 89DE                    	mov	si, bx
   600 00000421 BF[FC3C]                	mov	di, wild_pattern
   601 00000424 E8CD14                  	call	parse_wildcard
   602 00000427 5E                      	pop	si
   603                                  
   604                                  	; Temporarily terminate string at the separator for resolve_path
   605 00000428 8A47FF                  	mov	al, [bx-1]
   606 0000042B 50                      	push	ax		; Save original separator byte
   607 0000042C C647FF00                	mov	byte [bx-1], 0
   608 00000430 E81110                  	call	resolve_path
   609 00000433 58                      	pop	ax
   610 00000434 8847FF                  	mov	[bx-1], al	; Restore separator
   611                                  
   612 00000437 7303E94603              	jc	.dir_error
   613 0000043C 803E[F03C]20            	cmp	byte [exec_fname], ' '
   614 00000441 7454                    	je	.dir_resolved_wild
   615                                  	; The directory part might point to a subdir — look it up
   616 00000443 E81B11                  	call	read_resolved_dir
   617 00000446 7303E93703              	jc	.dir_error
   618 0000044B BE0040                  	mov	si, dir_buffer
   619 0000044E 8B0E[0B3E]              	mov	cx, [resolved_dir_entries]
   620 00000452 EB00                    	jmp	.dir_find_subdir_wild
   621                                  .dir_find_subdir_wild:
   622 00000454 8A04                    	mov	al, [si]
   623 00000456 3C00                    	cmp	al, 0
   624 00000458 7503E92503              	je	.dir_error
   625 0000045D 3CE5                    	cmp	al, 0xE5
   626 0000045F 7414                    	je	.dir_find_next_wild
   627 00000461 F6440B10                	test	byte [si+11], 0x10
   628 00000465 740E                    	jz	.dir_find_next_wild
   629 00000467 51                      	push	cx
   630 00000468 56                      	push	si
   631 00000469 BF[F03C]                	mov	di, exec_fname
   632 0000046C B90B00                  	mov	cx, 11
   633 0000046F F3A6                    	repe	cmpsb
   634 00000471 5E                      	pop	si
   635 00000472 59                      	pop	cx
   636 00000473 7409                    	je	.dir_found_subdir_wild
   637                                  .dir_find_next_wild:
   638 00000475 83C620                  	add	si, 32
   639 00000478 49                      	dec	cx
   640 00000479 75D9                    	jnz	.dir_find_subdir_wild
   641 0000047B E90403                  	jmp	.dir_error
   642                                  .dir_found_subdir_wild:
   643 0000047E 8B441A                  	mov	ax, [si+26]
   644 00000481 A3[093E]                	mov	[resolved_dir_cluster], ax
   645 00000484 83F800                  	cmp	ax, 0
   646 00000487 7508                    	jne	.dir_is_sub_wild
   647 00000489 C706[0B3E]7000          	mov	word [resolved_dir_entries], MAX_DIR_ENTRIES
   648 0000048F EB06                    	jmp	.dir_resolved_wild
   649                                  .dir_is_sub_wild:
   650 00000491 C706[0B3E]2000          	mov	word [resolved_dir_entries], SECS_PER_CLUST * 512 / 32
   651                                  
   652                                  .dir_resolved_wild:
   653 00000497 E8C710                  	call	read_resolved_dir
   654 0000049A 7303E9E302              	jc	.dir_error
   655 0000049F BE0040                  	mov	si, dir_buffer
   656 000004A2 8B0E[0B3E]              	mov	cx, [resolved_dir_entries]
   657 000004A6 EB74                    	jmp	.dir_start
   658                                  
   659                                  .dir_cur_wild:
   660                                  	; Current dir + wildcard
   661 000004A8 A0[083E]                	mov	al, [cur_drive]
   662 000004AB A2[0D3E]                	mov	[resolved_drive], al
   663 000004AE E8DA0E                  	call	read_cur_dir
   664 000004B1 7303E9CC02              	jc	.dir_error
   665 000004B6 BE0040                  	mov	si, dir_buffer
   666 000004B9 8B0E[C43D]              	mov	cx, [cur_dir_entries]
   667 000004BD EB5D                    	jmp	.dir_start
   668                                  
   669 000004BF 00                      .dir_has_wild:	db	0
   670                                  
   671                                  ; Strip last component from dir_hdr_path (remove filename, keep directory)
   672                                  .dir_hdr_strip_last:
   673 000004C0 56                      	push	si
   674 000004C1 57                      	push	di
   675 000004C2 BE[F43E]                	mov	si, dir_hdr_path
   676 000004C5 31FF                    	xor	di, di			; DI = position of last '\'
   677                                  .dir_hdr_sl:
   678 000004C7 803C00                  	cmp	byte [si], 0
   679 000004CA 740A                    	je	.dir_hdr_sl_done
   680 000004CC 803C5C                  	cmp	byte [si], '\'
   681 000004CF 7502                    	jne	.dir_hdr_sl_next
   682 000004D1 89F7                    	mov	di, si
   683                                  .dir_hdr_sl_next:
   684 000004D3 46                      	inc	si
   685 000004D4 EBF1                    	jmp	.dir_hdr_sl
   686                                  .dir_hdr_sl_done:
   687 000004D6 83FF00                  	cmp	di, 0
   688 000004D9 7405                    	je	.dir_hdr_sl_clear	; No '\' — entire path is the filename
   689 000004DB C60500                  	mov	byte [di], 0		; Truncate at last '\'
   690 000004DE EB05                    	jmp	.dir_hdr_sl_ret
   691                                  .dir_hdr_sl_clear:
   692 000004E0 C606[F43E]00            	mov	byte [dir_hdr_path], 0
   693                                  .dir_hdr_sl_ret:
   694 000004E5 5F                      	pop	di
   695 000004E6 5E                      	pop	si
   696 000004E7 C3                      	ret
   697                                  
   698                                  .dir_resolved:
   699                                  	; Read the resolved directory
   700 000004E8 E87610                  	call	read_resolved_dir
   701 000004EB 7303E99202              	jc	.dir_error
   702 000004F0 BE0040                  	mov	si, dir_buffer
   703 000004F3 8B0E[0B3E]              	mov	cx, [resolved_dir_entries]
   704 000004F7 EB23                    	jmp	.dir_start
   705                                  
   706                                  .dir_cur:
   707                                  	; No argument — read current directory
   708                                  	; Set resolved_drive to cur_drive for read_cur_dir
   709 000004F9 A0[083E]                	mov	al, [cur_drive]
   710 000004FC A2[0D3E]                	mov	[resolved_drive], al
   711                                  	; Copy cur_dir_path to dir_hdr_path
   712 000004FF 56                      	push	si
   713 00000500 BE[C63D]                	mov	si, cur_dir_path
   714 00000503 BF[F43E]                	mov	di, dir_hdr_path
   715                                  .dir_cur_cp:
   716 00000506 AC                      	lodsb
   717 00000507 AA                      	stosb
   718 00000508 08C0                    	or	al, al
   719 0000050A 75FA                    	jnz	.dir_cur_cp
   720 0000050C 5E                      	pop	si
   721 0000050D E87B0E                  	call	read_cur_dir
   722 00000510 7303E96D02              	jc	.dir_error
   723 00000515 BE0040                  	mov	si, dir_buffer
   724 00000518 8B0E[C43D]              	mov	cx, [cur_dir_entries]
   725                                  
   726                                  .dir_start:
   727 0000051C C706[F03E]0000          	mov	word [file_count], 0
   728 00000522 C606[F33E]00            	mov	byte [dir_col], 0
   729                                  
   730                                  	; Print volume header
   731 00000527 B00D                    	mov	al, 0x0D
   732 00000529 B40E                    	mov	ah, 0x0E
   733 0000052B CD10                    	int	0x10
   734 0000052D B00A                    	mov	al, 0x0A
   735 0000052F B40E                    	mov	ah, 0x0E
   736 00000531 CD10                    	int	0x10
   737 00000533 56                      	push	si
   738 00000534 BE[3D3C]                	mov	si, msg_vol_hdr
   739 00000537 E88833                  	call	print_string
   740 0000053A 5E                      	pop	si
   741                                  	; Print "Directory of  X:\"
   742 0000053B 56                      	push	si
   743 0000053C BE[5D3C]                	mov	si, msg_dir_of
   744 0000053F E88033                  	call	print_string
   745 00000542 A0[0D3E]                	mov	al, [resolved_drive]
   746 00000545 0441                    	add	al, 'A'
   747 00000547 B40E                    	mov	ah, 0x0E
   748 00000549 CD10                    	int	0x10
   749 0000054B B03A                    	mov	al, ':'
   750 0000054D B40E                    	mov	ah, 0x0E
   751 0000054F CD10                    	int	0x10
   752 00000551 B05C                    	mov	al, '\'
   753 00000553 B40E                    	mov	ah, 0x0E
   754 00000555 CD10                    	int	0x10
   755 00000557 803E[F43E]00            	cmp	byte [dir_hdr_path], 0
   756 0000055C 7406                    	je	.dir_hdr_no_path
   757 0000055E BE[F43E]                	mov	si, dir_hdr_path
   758 00000561 E85E33                  	call	print_string
   759                                  .dir_hdr_no_path:
   760 00000564 B00D                    	mov	al, 0x0D
   761 00000566 B40E                    	mov	ah, 0x0E
   762 00000568 CD10                    	int	0x10
   763 0000056A B00A                    	mov	al, 0x0A
   764 0000056C B40E                    	mov	ah, 0x0E
   765 0000056E CD10                    	int	0x10
   766 00000570 B00D                    	mov	al, 0x0D
   767 00000572 B40E                    	mov	ah, 0x0E
   768 00000574 CD10                    	int	0x10
   769 00000576 B00A                    	mov	al, 0x0A
   770 00000578 B40E                    	mov	ah, 0x0E
   771 0000057A CD10                    	int	0x10
   772 0000057C 5E                      	pop	si
   773                                  
   774                                  .dir_entry:
   775                                  	; Check first byte
   776 0000057D 8A04                    	mov	al, [si]
   777 0000057F 3C00                    	cmp	al, 0x00		; End of directory
   778 00000581 7503E96801              	je	.dir_done
   779 00000586 3CE5                    	cmp	al, 0xE5		; Deleted entry
   780 00000588 7503E94D01              	je	.dir_next
   781                                  	; Check attribute byte for volume label
   782 0000058D 8A440B                  	mov	al, [si+11]
   783 00000590 A808                    	test	al, 0x08		; Volume label?
   784 00000592 7403E94301              	jnz	.dir_next
   785                                  
   786                                  	; Wildcard filter
   787 00000597 803E[073D]00            	cmp	byte [wild_active], 0
   788 0000059C 740D                    	je	.dir_no_filter
   789 0000059E 56                      	push	si
   790 0000059F BF[FC3C]                	mov	di, wild_pattern
   791 000005A2 E81B14                  	call	match_wildcard
   792 000005A5 5E                      	pop	si
   793 000005A6 7303E92F01              	jc	.dir_next		; No match — skip
   794                                  .dir_no_filter:
   795                                  
   796 000005AB 51                      	push	cx
   797 000005AC 56                      	push	si
   798                                  
   799                                  	; Check wide mode
   800 000005AD 803E[F23E]01            	cmp	byte [dir_wide], 1
   801 000005B2 7503E9DF00              	je	.dir_wide_entry
   802                                  
   803                                  	; === Normal mode ===
   804                                  	; Print filename (8 chars, space-padded)
   805 000005B7 B90800                  	mov	cx, 8
   806                                  .print_name:
   807 000005BA 8A04                    	mov	al, [si]
   808 000005BC B40E                    	mov	ah, 0x0E
   809 000005BE CD10                    	int	0x10
   810 000005C0 46                      	inc	si
   811 000005C1 49                      	dec	cx
   812 000005C2 75F6                    	jnz	.print_name
   813                                  	; Space separator
   814 000005C4 B020                    	mov	al, ' '
   815 000005C6 B40E                    	mov	ah, 0x0E
   816 000005C8 CD10                    	int	0x10
   817                                  	; Print extension (3 chars)
   818 000005CA B90300                  	mov	cx, 3
   819                                  .print_ext:
   820 000005CD 8A04                    	mov	al, [si]
   821 000005CF B40E                    	mov	ah, 0x0E
   822 000005D1 CD10                    	int	0x10
   823 000005D3 46                      	inc	si
   824 000005D4 49                      	dec	cx
   825 000005D5 75F6                    	jnz	.print_ext
   826                                  
   827                                  	; Check if directory
   828 000005D7 5E                      	pop	si
   829 000005D8 56                      	push	si
   830 000005D9 F6440B10                	test	byte [si+11], 0x10
   831 000005DD 7515                    	jnz	.dir_show_dir
   832                                  
   833                                  	; Print file size (right-aligned in 10 chars)
   834 000005DF 8B441C                  	mov	ax, [si+28]
   835 000005E2 8B541E                  	mov	dx, [si+30]
   836 000005E5 E8AB11                  	call	print_size_padded
   837                                  	; Three spaces after size
   838 000005E8 B020                    	mov	al, ' '
   839 000005EA B40E                    	mov	ah, 0x0E
   840 000005EC CD10                    	int	0x10
   841 000005EE CD10                    	int	0x10
   842 000005F0 CD10                    	int	0x10
   843 000005F2 EB08                    	jmp	.dir_print_date
   844                                  
   845                                  .dir_show_dir:
   846 000005F4 56                      	push	si
   847 000005F5 BE[2F3C]                	mov	si, msg_dir_tag_fmt
   848 000005F8 E8C732                  	call	print_string
   849 000005FB 5E                      	pop	si
   850                                  
   851                                  .dir_print_date:
   852 000005FC 5E                      	pop	si
   853 000005FD 56                      	push	si
   854 000005FE 8B4418                  	mov	ax, [si+24]
   855 00000601 09C0                    	or	ax, ax
   856 00000603 747D                    	jz	.dir_no_date
   857                                  	; Month
   858 00000605 50                      	push	ax
   859 00000606 B105                    	mov	cl, 5
   860 00000608 D3E8                    	shr	ax, cl
   861 0000060A 83E00F                  	and	ax, 0x0F
   862 0000060D E86011                  	call	print_2digit_space
   863 00000610 B02D                    	mov	al, '-'
   864 00000612 B40E                    	mov	ah, 0x0E
   865 00000614 CD10                    	int	0x10
   866                                  	; Day
   867 00000616 58                      	pop	ax
   868 00000617 50                      	push	ax
   869 00000618 83E01F                  	and	ax, 0x1F
   870 0000061B E83711                  	call	print_2digit
   871 0000061E B02D                    	mov	al, '-'
   872 00000620 B40E                    	mov	ah, 0x0E
   873 00000622 CD10                    	int	0x10
   874                                  	; Year
   875 00000624 58                      	pop	ax
   876 00000625 B109                    	mov	cl, 9
   877 00000627 D3E8                    	shr	ax, cl
   878 00000629 83C050                  	add	ax, 80
   879 0000062C 83F864                  	cmp	ax, 100
   880 0000062F 7203                    	jb	.dir_yr_ok
   881 00000631 83E864                  	sub	ax, 100
   882                                  .dir_yr_ok:
   883 00000634 E81E11                  	call	print_2digit
   884                                  	; Two spaces
   885 00000637 B020                    	mov	al, ' '
   886 00000639 B40E                    	mov	ah, 0x0E
   887 0000063B CD10                    	int	0x10
   888 0000063D CD10                    	int	0x10
   889                                  	; Time
   890 0000063F 5E                      	pop	si
   891 00000640 56                      	push	si
   892 00000641 8B4416                  	mov	ax, [si+22]
   893 00000644 09C0                    	or	ax, ax
   894 00000646 743A                    	jz	.dir_no_time
   895 00000648 50                      	push	ax
   896 00000649 B10B                    	mov	cl, 11
   897 0000064B D3E8                    	shr	ax, cl
   898 0000064D B361                    	mov	bl, 'a'
   899 0000064F 83F80C                  	cmp	ax, 12
   900 00000652 720A                    	jb	.dir_am
   901 00000654 B370                    	mov	bl, 'p'
   902 00000656 83F80C                  	cmp	ax, 12
   903 00000659 7403                    	je	.dir_am
   904 0000065B 83E80C                  	sub	ax, 12
   905                                  .dir_am:
   906 0000065E 83F800                  	cmp	ax, 0
   907 00000661 7503                    	jne	.dir_hr_ok
   908 00000663 B80C00                  	mov	ax, 12
   909                                  .dir_hr_ok:
   910 00000666 E80711                  	call	print_2digit_space
   911 00000669 B03A                    	mov	al, ':'
   912 0000066B B40E                    	mov	ah, 0x0E
   913 0000066D CD10                    	int	0x10
   914 0000066F 58                      	pop	ax
   915 00000670 B105                    	mov	cl, 5
   916 00000672 D3E8                    	shr	ax, cl
   917 00000674 83E03F                  	and	ax, 0x3F
   918 00000677 E8DB10                  	call	print_2digit
   919 0000067A 88D8                    	mov	al, bl
   920 0000067C B40E                    	mov	ah, 0x0E
   921 0000067E CD10                    	int	0x10
   922 00000680 EB00                    	jmp	.dir_end_line
   923                                  .dir_no_date:
   924                                  .dir_no_time:
   925                                  .dir_end_line:
   926 00000682 B00D                    	mov	al, 0x0D
   927 00000684 B40E                    	mov	ah, 0x0E
   928 00000686 CD10                    	int	0x10
   929 00000688 B00A                    	mov	al, 0x0A
   930 0000068A B40E                    	mov	ah, 0x0E
   931 0000068C CD10                    	int	0x10
   932 0000068E 5E                      	pop	si
   933 0000068F 59                      	pop	cx
   934 00000690 FF06[F03E]              	inc	word [file_count]
   935 00000694 EB4F                    	jmp	.dir_next_line
   936                                  
   937                                  	; === Wide mode ===
   938                                  .dir_wide_entry:
   939                                  	; Print filename (8 chars, trimmed) + space + ext (3 chars)
   940                                  	; Each entry is 16 chars wide, 5 per row
   941 00000696 B90800                  	mov	cx, 8
   942                                  .dir_w_name:
   943 00000699 8A04                    	mov	al, [si]
   944 0000069B B40E                    	mov	ah, 0x0E
   945 0000069D CD10                    	int	0x10
   946 0000069F 46                      	inc	si
   947 000006A0 49                      	dec	cx
   948 000006A1 75F6                    	jnz	.dir_w_name
   949                                  	; Space
   950 000006A3 B020                    	mov	al, ' '
   951 000006A5 B40E                    	mov	ah, 0x0E
   952 000006A7 CD10                    	int	0x10
   953                                  	; Extension
   954 000006A9 B90300                  	mov	cx, 3
   955                                  .dir_w_ext:
   956 000006AC 8A04                    	mov	al, [si]
   957 000006AE B40E                    	mov	ah, 0x0E
   958 000006B0 CD10                    	int	0x10
   959 000006B2 46                      	inc	si
   960 000006B3 49                      	dec	cx
   961 000006B4 75F6                    	jnz	.dir_w_ext
   962                                  	; Padding spaces to fill 16 chars (8+1+3=12, need 4 more)
   963 000006B6 B90400                  	mov	cx, 4
   964                                  .dir_w_pad:
   965 000006B9 B020                    	mov	al, ' '
   966 000006BB B40E                    	mov	ah, 0x0E
   967 000006BD CD10                    	int	0x10
   968 000006BF 49                      	dec	cx
   969 000006C0 75F7                    	jnz	.dir_w_pad
   970                                  
   971                                  	; Column tracking
   972 000006C2 FE06[F33E]              	inc	byte [dir_col]
   973 000006C6 803E[F33E]05            	cmp	byte [dir_col], 5
   974 000006CB 7205                    	jb	.dir_w_no_newline
   975 000006CD C606[F33E]00            	mov	byte [dir_col], 0
   976                                  .dir_w_no_newline:
   977 000006D2 5E                      	pop	si
   978 000006D3 59                      	pop	cx
   979 000006D4 FF06[F03E]              	inc	word [file_count]
   980 000006D8 EB0B                    	jmp	.dir_next_line
   981                                  
   982                                  .dir_next:
   983 000006DA 83C620                  	add	si, 32
   984 000006DD 49                      	dec	cx
   985 000006DE 7403E99AFE              	jnz	.dir_entry
   986 000006E3 EB09                    	jmp	.dir_done
   987                                  
   988                                  .dir_next_line:
   989 000006E5 83C620                  	add	si, 32
   990 000006E8 49                      	dec	cx
   991 000006E9 7403E98FFE              	jnz	.dir_entry
   992                                  
   993                                  .dir_done:
   994                                  	; If no files matched and a filter was active, show "File not found"
   995 000006EE 803E[073D]00            	cmp	byte [wild_active], 0
   996 000006F3 7410                    	je	.dir_done_wide_check
   997 000006F5 833E[F03E]00            	cmp	word [file_count], 0
   998 000006FA 7509                    	jne	.dir_done_wide_check
   999 000006FC BE[453A]                	mov	si, msg_not_found
  1000 000006FF E8C031                  	call	print_string
  1001 00000702 E9C6F9                  	jmp	cmd_loop
  1002                                  
  1003                                  .dir_done_wide_check:
  1004                                  	; If wide mode and not at column 0, add newline
  1005 00000705 803E[F23E]00            	cmp	byte [dir_wide], 0
  1006 0000070A 7413                    	je	.dir_done_summary
  1007 0000070C 803E[F33E]00            	cmp	byte [dir_col], 0
  1008 00000711 740C                    	je	.dir_done_summary
  1009 00000713 B00D                    	mov	al, 0x0D
  1010 00000715 B40E                    	mov	ah, 0x0E
  1011 00000717 CD10                    	int	0x10
  1012 00000719 B00A                    	mov	al, 0x0A
  1013 0000071B B40E                    	mov	ah, 0x0E
  1014 0000071D CD10                    	int	0x10
  1015                                  .dir_done_summary:
  1016                                  	; Print summary
  1017 0000071F A1[F03E]                	mov	ax, [file_count]
  1018 00000722 31D2                    	xor	dx, dx
  1019 00000724 B90900                  	mov	cx, 9
  1020 00000727 E8B610                  	call	print_rpad_dec
  1021 0000072A BE[123A]                	mov	si, msg_files_fmt
  1022 0000072D E89231                  	call	print_string
  1023                                  
  1024                                  	; Calculate free space: count free clusters in FAT
  1025                                  	; Use resolved_drive for the correct disk
  1026 00000730 E8CA0C                  	call	read_fat
  1027 00000733 723E                    	jc	.dir_no_free
  1028 00000735 31DB                    	xor	bx, bx			; Free cluster count
  1029 00000737 B80200                  	mov	ax, 2			; Start at cluster 2
  1030                                  	; Get total clusters from BPB: (total_sectors - data_start) / secs_per_clust
  1031                                  	; For 360K: (720 - 12) / 2 = 354 clusters
  1032 0000073A B96201                  	mov	cx, 354			; Max data clusters for 360K
  1033 0000073D 83C102                  	add	cx, 2			; Clusters start at 2
  1034                                  .dir_count_free:
  1035 00000740 39C8                    	cmp	ax, cx
  1036 00000742 7310                    	jae	.dir_free_done
  1037 00000744 50                      	push	ax
  1038 00000745 51                      	push	cx
  1039 00000746 E8AF06                  	call	fat12_read_cluster
  1040 00000749 83F800                  	cmp	ax, 0
  1041 0000074C 59                      	pop	cx
  1042 0000074D 58                      	pop	ax
  1043 0000074E 7501                    	jne	.dir_not_free
  1044 00000750 43                      	inc	bx
  1045                                  .dir_not_free:
  1046 00000751 40                      	inc	ax
  1047 00000752 EBEC                    	jmp	.dir_count_free
  1048                                  .dir_free_done:
  1049                                  	; Free bytes = free_clusters * SECS_PER_CLUST * 512
  1050 00000754 89D8                    	mov	ax, bx
  1051 00000756 B90004                  	mov	cx, SECS_PER_CLUST * 512
  1052 00000759 F7E1                    	mul	cx			; DX:AX = free bytes
  1053 0000075B E80432                  	call	print_decimal_32
  1054 0000075E BE[213A]                	mov	si, msg_bytes_free
  1055 00000761 E85E31                  	call	print_string
  1056 00000764 B00D                    	mov	al, 0x0D
  1057 00000766 B40E                    	mov	ah, 0x0E
  1058 00000768 CD10                    	int	0x10
  1059 0000076A B00A                    	mov	al, 0x0A
  1060 0000076C B40E                    	mov	ah, 0x0E
  1061 0000076E CD10                    	int	0x10
  1062 00000770 E958F9                  	jmp	cmd_loop
  1063                                  .dir_no_free:
  1064 00000773 B00D                    	mov	al, 0x0D
  1065 00000775 B40E                    	mov	ah, 0x0E
  1066 00000777 CD10                    	int	0x10
  1067 00000779 B00A                    	mov	al, 0x0A
  1068 0000077B B40E                    	mov	ah, 0x0E
  1069 0000077D CD10                    	int	0x10
  1070 0000077F E949F9                  	jmp	cmd_loop
  1071                                  
  1072                                  .dir_error:
  1073 00000782 BE[853A]                	mov	si, msg_disk_err
  1074 00000785 E83A31                  	call	print_string
  1075 00000788 E940F9                  	jmp	cmd_loop
  1076                                  
  1077                                  ; ============================================================================
  1078                                  ; ECHO — print rest of command line
  1079                                  ; ============================================================================
  1080                                  do_echo:
  1081                                  	; SI points past "ECHO" — skip the space after it
  1082 0000078B E89631                  	call	skip_spaces
  1083 0000078E E83131                  	call	print_string
  1084                                  	; Print newline
  1085 00000791 B00D                    	mov	al, 0x0D
  1086 00000793 B40E                    	mov	ah, 0x0E
  1087 00000795 CD10                    	int	0x10
  1088 00000797 B00A                    	mov	al, 0x0A
  1089 00000799 B40E                    	mov	ah, 0x0E
  1090 0000079B CD10                    	int	0x10
  1091 0000079D E92BF9                  	jmp	cmd_loop
  1092                                  
  1093                                  ; ============================================================================
  1094                                  ; CLS — clear screen
  1095                                  ; ============================================================================
  1096                                  do_cls:
  1097 000007A0 B406                    	mov	ah, 0x06
  1098 000007A2 B000                    	mov	al, 0x00
  1099 000007A4 B707                    	mov	bh, 0x07
  1100 000007A6 B90000                  	mov	cx, 0x0000
  1101 000007A9 BA4F18                  	mov	dx, 0x184F
  1102 000007AC CD10                    	int	0x10
  1103                                  	; Home cursor
  1104 000007AE B402                    	mov	ah, 0x02
  1105 000007B0 B700                    	mov	bh, 0
  1106 000007B2 BA0000                  	mov	dx, 0x0000
  1107 000007B5 CD10                    	int	0x10
  1108 000007B7 E911F9                  	jmp	cmd_loop
  1109                                  
  1110                                  ; ============================================================================
  1111                                  ; VER — show version
  1112                                  ; ============================================================================
  1113                                  do_ver:
  1114 000007BA BE[FC3B]                	mov	si, msg_ver
  1115 000007BD E80231                  	call	print_string
  1116 000007C0 E908F9                  	jmp	cmd_loop
  1117                                  
  1118                                  ; ============================================================================
  1119                                  ; TYPE — display file contents
  1120                                  ; ============================================================================
  1121                                  do_type:
  1122                                  	; SI points past "TYPE" — skip spaces to get filename
  1123 000007C3 E85E31                  	call	skip_spaces
  1124 000007C6 803C00                  	cmp	byte [si], 0
  1125 000007C9 7509                    	jne	.type_has_name
  1126 000007CB BE[973A]                	mov	si, msg_need_fname
  1127 000007CE E8F130                  	call	print_string
  1128 000007D1 E9F7F8                  	jmp	cmd_loop
  1129                                  
  1130                                  .type_has_name:
  1131                                  	; Resolve path (handles DIR\FILE.TXT, \DIR\FILE, FILE.TXT)
  1132 000007D4 E86D0C                  	call	resolve_path
  1133 000007D7 722D                    	jc	.type_not_found
  1134                                  
  1135                                  	; Read resolved directory
  1136 000007D9 E8850D                  	call	read_resolved_dir
  1137 000007DC 7303E9BC00              	jc	.type_disk_err
  1138                                  
  1139                                  	; Search for file
  1140 000007E1 BE0040                  	mov	si, dir_buffer
  1141 000007E4 8B0E[0B3E]              	mov	cx, [resolved_dir_entries]
  1142                                  .type_search:
  1143 000007E8 8A04                    	mov	al, [si]
  1144 000007EA 3C00                    	cmp	al, 0x00
  1145 000007EC 7418                    	je	.type_not_found
  1146 000007EE 3CE5                    	cmp	al, 0xE5
  1147 000007F0 740E                    	je	.type_search_next
  1148 000007F2 51                      	push	cx
  1149 000007F3 56                      	push	si
  1150 000007F4 BF[F03C]                	mov	di, exec_fname
  1151 000007F7 B90B00                  	mov	cx, 11
  1152 000007FA F3A6                    	repe	cmpsb
  1153 000007FC 5E                      	pop	si
  1154 000007FD 59                      	pop	cx
  1155 000007FE 740F                    	je	.type_found
  1156                                  .type_search_next:
  1157 00000800 83C620                  	add	si, 32
  1158 00000803 49                      	dec	cx
  1159 00000804 75E2                    	jnz	.type_search
  1160                                  
  1161                                  .type_not_found:
  1162 00000806 BE[453A]                	mov	si, msg_not_found
  1163 00000809 E8B630                  	call	print_string
  1164 0000080C E9BCF8                  	jmp	cmd_loop
  1165                                  
  1166                                  .type_found:
  1167                                  	; Get starting cluster and file size
  1168 0000080F 8B441A                  	mov	ax, [si+26]
  1169 00000812 A3[163E]                	mov	[exec_cluster], ax
  1170 00000815 8B441C                  	mov	ax, [si+28]
  1171 00000818 A3[183E]                	mov	[exec_size], ax
  1172 0000081B 8B441E                  	mov	ax, [si+30]
  1173 0000081E A3[1A3E]                	mov	[exec_size+2], ax
  1174                                  
  1175                                  	; Load FAT
  1176 00000821 E8D90B                  	call	read_fat
  1177 00000824 7277                    	jc	.type_disk_err
  1178                                  
  1179                                  	; Read and print file cluster by cluster
  1180 00000826 A1[163E]                	mov	ax, [exec_cluster]
  1181                                  
  1182                                  .type_read_cluster:
  1183                                  	; Convert cluster to sector
  1184 00000829 50                      	push	ax
  1185 0000082A 83E802                  	sub	ax, 2
  1186 0000082D B90200                  	mov	cx, SECS_PER_CLUST
  1187 00000830 F7E1                    	mul	cx
  1188 00000832 83C00C                  	add	ax, DATA_START_SEC
  1189                                  
  1190                                  	; Convert linear sector to CHS
  1191                                  	; Save sector number, compute CHS
  1192 00000835 31D2                    	xor	dx, dx
  1193 00000837 B91200                  	mov	cx, 18			; SPT * heads
  1194 0000083A F7F1                    	div	cx			; AX = cylinder, DX = remainder
  1195 0000083C 50                      	push	ax			; Save cylinder
  1196 0000083D 89D0                    	mov	ax, dx
  1197 0000083F 31D2                    	xor	dx, dx
  1198 00000841 B90900                  	mov	cx, 9			; SPT
  1199 00000844 F7F1                    	div	cx			; AX = head, DX = sector (0-based)
  1200 00000846 88C6                    	mov	dh, al			; DH = head
  1201 00000848 88D1                    	mov	cl, dl
  1202 0000084A FEC1                    	inc	cl			; CL = sector (1-based)
  1203 0000084C 58                      	pop	ax
  1204 0000084D 88C5                    	mov	ch, al			; CH = cylinder
  1205                                  
  1206                                  	; Read cluster into dir_buffer (reuse as temp)
  1207 0000084F B80008                  	mov	ax, SHELL_SEG
  1208 00000852 8EC0                    	mov	es, ax
  1209 00000854 BB0040                  	mov	bx, dir_buffer
  1210 00000857 B402                    	mov	ah, 0x02
  1211 00000859 B002                    	mov	al, SECS_PER_CLUST
  1212 0000085B 8A16[0D3E]              	mov	dl, [resolved_drive]
  1213 0000085F CD13                    	int	0x13
  1214 00000861 7239                    	jc	.type_disk_err_pop
  1215                                  
  1216                                  	; Print bytes from buffer, up to file size remaining
  1217 00000863 BE0040                  	mov	si, dir_buffer
  1218 00000866 B90004                  	mov	cx, SECS_PER_CLUST * 512	; bytes in cluster
  1219                                  
  1220                                  .type_print_byte:
  1221                                  	; Check if file size remaining is zero
  1222 00000869 833E[183E]00            	cmp	word [exec_size], 0
  1223 0000086E 7507                    	jne	.type_not_eof
  1224 00000870 833E[1A3E]00            	cmp	word [exec_size+2], 0
  1225 00000875 7421                    	je	.type_eof_pop
  1226                                  .type_not_eof:
  1227 00000877 AC                      	lodsb
  1228 00000878 B40E                    	mov	ah, 0x0E
  1229 0000087A BB0700                  	mov	bx, 0x0007
  1230 0000087D CD10                    	int	0x10
  1231                                  	; Decrement file size
  1232 0000087F 832E[183E]01            	sub	word [exec_size], 1
  1233 00000884 831E[1A3E]00            	sbb	word [exec_size+2], 0
  1234 00000889 49                      	dec	cx
  1235 0000088A 75DD                    	jnz	.type_print_byte
  1236                                  
  1237                                  	; Get next cluster
  1238 0000088C 58                      	pop	ax
  1239 0000088D E86B14                  	call	fat12_next_cluster
  1240 00000890 3DF80F                  	cmp	ax, 0xFF8
  1241 00000893 7294                    	jb	.type_read_cluster
  1242                                  
  1243                                  	; Done
  1244 00000895 E933F8                  	jmp	cmd_loop
  1245                                  
  1246                                  .type_eof_pop:
  1247 00000898 58                      	pop	ax		; Discard saved cluster
  1248 00000899 E92FF8                  	jmp	cmd_loop
  1249                                  
  1250                                  .type_disk_err_pop:
  1251 0000089C 58                      	pop	ax		; Discard saved cluster
  1252                                  .type_disk_err:
  1253 0000089D BE[853A]                	mov	si, msg_disk_err
  1254 000008A0 E81F30                  	call	print_string
  1255 000008A3 E925F8                  	jmp	cmd_loop
  1256                                  
  1257                                  ; ============================================================================
  1258                                  ; DEL — delete a file
  1259                                  ; ============================================================================
  1260                                  do_del:
  1261                                  	; SI points past "DEL" — skip spaces to get filename
  1262 000008A6 E87B30                  	call	skip_spaces
  1263 000008A9 803C00                  	cmp	byte [si], 0
  1264 000008AC 7509                    	jne	.del_has_name
  1265 000008AE BE[973A]                	mov	si, msg_need_fname
  1266 000008B1 E80E30                  	call	print_string
  1267 000008B4 E914F8                  	jmp	cmd_loop
  1268                                  
  1269                                  .del_has_name:
  1270                                  	; Check for wildcards in the argument
  1271 000008B7 56                      	push	si
  1272 000008B8 C606[073D]00            	mov	byte [wild_active], 0
  1273                                  .del_scan_wild:
  1274 000008BD 8A04                    	mov	al, [si]
  1275 000008BF 3C00                    	cmp	al, 0
  1276 000008C1 7503E92F01              	je	.del_scan_done
  1277 000008C6 3C20                    	cmp	al, ' '
  1278 000008C8 7503E92801              	je	.del_scan_done
  1279 000008CD 3C2A                    	cmp	al, '*'
  1280 000008CF 7407                    	je	.del_found_wild
  1281 000008D1 3C3F                    	cmp	al, '?'
  1282 000008D3 7403                    	je	.del_found_wild
  1283 000008D5 46                      	inc	si
  1284 000008D6 EBE5                    	jmp	.del_scan_wild
  1285                                  .del_found_wild:
  1286 000008D8 C606[073D]01            	mov	byte [wild_active], 1
  1287                                  .del_wild_scan_done:
  1288 000008DD 5E                      	pop	si
  1289                                  
  1290 000008DE 803E[073D]00            	cmp	byte [wild_active], 0
  1291 000008E3 7503E92D01              	je	.del_no_wild
  1292                                  
  1293                                  	; --- Wildcard DEL ---
  1294                                  	; Find last separator to split dir from pattern
  1295 000008E8 56                      	push	si
  1296 000008E9 31DB                    	xor	bx, bx
  1297                                  .del_w_find_sep:
  1298 000008EB 8A04                    	mov	al, [si]
  1299 000008ED 3C00                    	cmp	al, 0
  1300 000008EF 7415                    	je	.del_w_sep_done
  1301 000008F1 3C20                    	cmp	al, ' '
  1302 000008F3 7411                    	je	.del_w_sep_done
  1303 000008F5 3C5C                    	cmp	al, '\'
  1304 000008F7 7407                    	je	.del_w_mark
  1305 000008F9 3C3A                    	cmp	al, ':'
  1306 000008FB 7403                    	je	.del_w_mark
  1307 000008FD 46                      	inc	si
  1308 000008FE EBEB                    	jmp	.del_w_find_sep
  1309                                  .del_w_mark:
  1310 00000900 8D5C01                  	lea	bx, [si+1]
  1311 00000903 46                      	inc	si
  1312 00000904 EBE5                    	jmp	.del_w_find_sep
  1313                                  .del_w_sep_done:
  1314 00000906 5E                      	pop	si
  1315                                  
  1316                                  	; Parse wildcard pattern from the filename portion
  1317 00000907 83FB00                  	cmp	bx, 0
  1318 0000090A 7527                    	jne	.del_w_has_dir
  1319                                  	; No directory part — pattern is the whole argument, use current dir
  1320 0000090C BF[FC3C]                	mov	di, wild_pattern
  1321 0000090F E8E20F                  	call	parse_wildcard
  1322 00000912 A0[083E]                	mov	al, [cur_drive]
  1323 00000915 A2[0D3E]                	mov	[resolved_drive], al
  1324 00000918 A1[C23D]                	mov	ax, [cur_dir_cluster]
  1325 0000091B A3[093E]                	mov	[resolved_dir_cluster], ax
  1326 0000091E A1[C43D]                	mov	ax, [cur_dir_entries]
  1327 00000921 A3[0B3E]                	mov	[resolved_dir_entries], ax
  1328 00000924 E8640A                  	call	read_cur_dir
  1329 00000927 7303E96401              	jc	.del_disk_err
  1330 0000092C 8B0E[C43D]              	mov	cx, [cur_dir_entries]
  1331 00000930 E98300                  	jmp	.del_wild_ready
  1332                                  
  1333                                  .del_w_has_dir:
  1334                                  	; Parse the wildcard from the filename part
  1335 00000933 56                      	push	si
  1336 00000934 89DE                    	mov	si, bx
  1337 00000936 BF[FC3C]                	mov	di, wild_pattern
  1338 00000939 E8B80F                  	call	parse_wildcard
  1339 0000093C 5E                      	pop	si
  1340                                  	; Temporarily terminate at separator for resolve_path
  1341 0000093D 8A47FF                  	mov	al, [bx-1]
  1342 00000940 50                      	push	ax
  1343 00000941 C647FF00                	mov	byte [bx-1], 0
  1344 00000945 E8FC0A                  	call	resolve_path
  1345 00000948 58                      	pop	ax
  1346 00000949 8847FF                  	mov	[bx-1], al		; Restore separator
  1347 0000094C 7303E9F100              	jc	.del_not_found
  1348                                  	; If exec_fname is not blank, descend into it
  1349 00000951 803E[F03C]20            	cmp	byte [exec_fname], ' '
  1350 00000956 7452                    	je	.del_w_resolved
  1351 00000958 E8060C                  	call	read_resolved_dir
  1352 0000095B 7303E93001              	jc	.del_disk_err
  1353 00000960 BE0040                  	mov	si, dir_buffer
  1354 00000963 8B0E[0B3E]              	mov	cx, [resolved_dir_entries]
  1355                                  .del_w_find_sub:
  1356 00000967 8A04                    	mov	al, [si]
  1357 00000969 3C00                    	cmp	al, 0
  1358 0000096B 7503E9D200              	je	.del_not_found
  1359 00000970 3CE5                    	cmp	al, 0xE5
  1360 00000972 7414                    	je	.del_w_find_next
  1361 00000974 F6440B10                	test	byte [si+11], 0x10
  1362 00000978 740E                    	jz	.del_w_find_next
  1363 0000097A 51                      	push	cx
  1364 0000097B 56                      	push	si
  1365 0000097C BF[F03C]                	mov	di, exec_fname
  1366 0000097F B90B00                  	mov	cx, 11
  1367 00000982 F3A6                    	repe	cmpsb
  1368 00000984 5E                      	pop	si
  1369 00000985 59                      	pop	cx
  1370 00000986 7409                    	je	.del_w_found_sub
  1371                                  .del_w_find_next:
  1372 00000988 83C620                  	add	si, 32
  1373 0000098B 49                      	dec	cx
  1374 0000098C 75D9                    	jnz	.del_w_find_sub
  1375 0000098E E9B100                  	jmp	.del_not_found
  1376                                  .del_w_found_sub:
  1377 00000991 8B441A                  	mov	ax, [si+26]
  1378 00000994 A3[093E]                	mov	[resolved_dir_cluster], ax
  1379 00000997 83F800                  	cmp	ax, 0
  1380 0000099A 7508                    	jne	.del_w_is_sub
  1381 0000099C C706[0B3E]7000          	mov	word [resolved_dir_entries], MAX_DIR_ENTRIES
  1382 000009A2 EB06                    	jmp	.del_w_resolved
  1383                                  .del_w_is_sub:
  1384 000009A4 C706[0B3E]2000          	mov	word [resolved_dir_entries], SECS_PER_CLUST * 512 / 32
  1385                                  .del_w_resolved:
  1386 000009AA E8B40B                  	call	read_resolved_dir
  1387 000009AD 7303E9DE00              	jc	.del_disk_err
  1388 000009B2 8B0E[0B3E]              	mov	cx, [resolved_dir_entries]
  1389                                  
  1390                                  .del_wild_ready:
  1391 000009B6 C606[8F0A]00            	mov	byte [.del_count], 0
  1392                                  
  1393                                  	; Load FAT
  1394 000009BB E83F0A                  	call	read_fat
  1395 000009BE 7303E9CD00              	jc	.del_disk_err
  1396                                  
  1397                                  	; Scan all entries
  1398 000009C3 BE0040                  	mov	si, dir_buffer
  1399                                  .del_search:
  1400 000009C6 8A04                    	mov	al, [si]
  1401 000009C8 3C00                    	cmp	al, 0x00
  1402 000009CA 7429                    	je	.del_scan_done
  1403 000009CC 3CE5                    	cmp	al, 0xE5
  1404 000009CE 741F                    	je	.del_search_next
  1405                                  	; Skip directories and volume labels
  1406 000009D0 F6440B18                	test	byte [si+11], 0x18
  1407 000009D4 7519                    	jnz	.del_search_next
  1408                                  
  1409                                  	; Match against wildcard pattern
  1410 000009D6 BF[FC3C]                	mov	di, wild_pattern
  1411 000009D9 E8E40F                  	call	match_wildcard
  1412 000009DC 7211                    	jc	.del_search_next	; No match
  1413                                  
  1414                                  	; Match found — free its cluster chain
  1415 000009DE 8B441A                  	mov	ax, [si+26]
  1416 000009E1 56                      	push	si
  1417 000009E2 51                      	push	cx
  1418 000009E3 E86500                  	call	.del_free_chain
  1419 000009E6 59                      	pop	cx
  1420 000009E7 5E                      	pop	si
  1421                                  
  1422                                  	; Mark entry deleted
  1423 000009E8 C604E5                  	mov	byte [si], 0xE5
  1424 000009EB FE06[8F0A]              	inc	byte [.del_count]
  1425                                  
  1426                                  .del_search_next:
  1427 000009EF 83C620                  	add	si, 32
  1428 000009F2 49                      	dec	cx
  1429 000009F3 75D1                    	jnz	.del_search
  1430                                  
  1431                                  .del_scan_done:
  1432 000009F5 803E[8F0A]00            	cmp	byte [.del_count], 0
  1433 000009FA 7446                    	je	.del_not_found
  1434                                  
  1435                                  	; Write directory back
  1436 000009FC E89B0B                  	call	write_resolved_dir
  1437 000009FF 7303E98C00              	jc	.del_disk_err
  1438                                  
  1439                                  	; Write FAT back
  1440 00000A04 E80F0A                  	call	write_fat
  1441 00000A07 7303E98400              	jc	.del_disk_err
  1442                                  
  1443 00000A0C BE[B43A]                	mov	si, msg_deleted
  1444 00000A0F E8B02E                  	call	print_string
  1445 00000A12 E9B6F6                  	jmp	cmd_loop
  1446                                  
  1447                                  .del_no_wild:
  1448                                  	; --- Non-wildcard DEL: use resolve_path ---
  1449 00000A15 E82C0A                  	call	resolve_path
  1450 00000A18 7228                    	jc	.del_not_found
  1451 00000A1A E8440B                  	call	read_resolved_dir
  1452 00000A1D 7271                    	jc	.del_disk_err
  1453                                  	; Parse exec_fname as exact wildcard pattern (no ? or *)
  1454 00000A1F BE[F03C]                	mov	si, exec_fname
  1455 00000A22 BF[FC3C]                	mov	di, wild_pattern
  1456 00000A25 B90B00                  	mov	cx, 11
  1457 00000A28 F3A4                    	rep	movsb
  1458 00000A2A C606[073D]01            	mov	byte [wild_active], 1
  1459 00000A2F C606[8F0A]00            	mov	byte [.del_count], 0
  1460 00000A34 E8C609                  	call	read_fat
  1461 00000A37 7257                    	jc	.del_disk_err
  1462 00000A39 BE0040                  	mov	si, dir_buffer
  1463 00000A3C 8B0E[0B3E]              	mov	cx, [resolved_dir_entries]
  1464 00000A40 EB84                    	jmp	.del_search
  1465                                  
  1466                                  .del_not_found:
  1467 00000A42 BE[453A]                	mov	si, msg_not_found
  1468 00000A45 E87A2E                  	call	print_string
  1469 00000A48 E980F6                  	jmp	cmd_loop
  1470                                  
  1471                                  ; Free the FAT cluster chain starting at AX
  1472                                  .del_free_chain:
  1473 00000A4B 83F802                  	cmp	ax, 0x002
  1474 00000A4E 723E                    	jb	.del_chain_done
  1475 00000A50 3DF80F                  	cmp	ax, 0xFF8
  1476 00000A53 7339                    	jae	.del_chain_done
  1477                                  
  1478 00000A55 50                      	push	ax
  1479 00000A56 E8A212                  	call	fat12_next_cluster
  1480 00000A59 A3[163E]                	mov	[exec_cluster], ax
  1481 00000A5C 58                      	pop	ax
  1482                                  
  1483                                  	; Zero this cluster's FAT entry
  1484 00000A5D 89C3                    	mov	bx, ax
  1485 00000A5F 89C1                    	mov	cx, ax
  1486 00000A61 D1E9                    	shr	cx, 1
  1487 00000A63 01CB                    	add	bx, cx
  1488                                  
  1489 00000A65 1E                      	push	ds
  1490 00000A66 B90008                  	mov	cx, SHELL_SEG
  1491 00000A69 8ED9                    	mov	ds, cx
  1492 00000A6B A90100                  	test	ax, 1
  1493 00000A6E 740D                    	jz	.del_even
  1494 00000A70 8B87004E                	mov	ax, [fat_buffer + bx]
  1495 00000A74 83E00F                  	and	ax, 0x000F
  1496 00000A77 8987004E                	mov	[fat_buffer + bx], ax
  1497 00000A7B EB0B                    	jmp	.del_zeroed
  1498                                  .del_even:
  1499 00000A7D 8B87004E                	mov	ax, [fat_buffer + bx]
  1500 00000A81 2500F0                  	and	ax, 0xF000
  1501 00000A84 8987004E                	mov	[fat_buffer + bx], ax
  1502                                  .del_zeroed:
  1503 00000A88 1F                      	pop	ds
  1504                                  
  1505 00000A89 A1[163E]                	mov	ax, [exec_cluster]
  1506 00000A8C EBBD                    	jmp	.del_free_chain
  1507                                  
  1508                                  .del_chain_done:
  1509 00000A8E C3                      	ret
  1510                                  
  1511 00000A8F 00                      .del_count:	db	0
  1512                                  
  1513                                  .del_disk_err:
  1514 00000A90 BE[853A]                	mov	si, msg_disk_err
  1515 00000A93 E82C2E                  	call	print_string
  1516 00000A96 E932F6                  	jmp	cmd_loop
  1517                                  
  1518                                  ; ============================================================================
  1519                                  ; REN — rename a file
  1520                                  ; ============================================================================
  1521                                  do_ren:
  1522                                  	; SI points past "REN" — get old filename
  1523 00000A99 E8882E                  	call	skip_spaces
  1524 00000A9C 803C00                  	cmp	byte [si], 0
  1525 00000A9F 7509                    	jne	.ren_has_old
  1526 00000AA1 BE[D23A]                	mov	si, msg_ren_usage
  1527 00000AA4 E81B2E                  	call	print_string
  1528 00000AA7 E921F6                  	jmp	cmd_loop
  1529                                  .ren_has_old:
  1530                                  	; Resolve old filename path
  1531 00000AAA E89709                  	call	resolve_path
  1532 00000AAD 7278                    	jc	.ren_not_found
  1533                                  
  1534                                  	; Save resolved directory for the old file
  1535 00000AAF A1[093E]                	mov	ax, [resolved_dir_cluster]
  1536 00000AB2 50                      	push	ax
  1537 00000AB3 A1[0B3E]                	mov	ax, [resolved_dir_entries]
  1538 00000AB6 50                      	push	ax
  1539                                  
  1540                                  	; Skip spaces to get new filename
  1541 00000AB7 E86A2E                  	call	skip_spaces
  1542 00000ABA 803C00                  	cmp	byte [si], 0
  1543 00000ABD 750B                    	jne	.ren_has_new
  1544 00000ABF 58                      	pop	ax
  1545 00000AC0 58                      	pop	ax
  1546 00000AC1 BE[D23A]                	mov	si, msg_ren_usage
  1547 00000AC4 E8FB2D                  	call	print_string
  1548 00000AC7 E901F6                  	jmp	cmd_loop
  1549                                  .ren_has_new:
  1550                                  	; Parse new filename (simple name only, no path)
  1551 00000ACA BF[083D]                	mov	di, ren_new_fname
  1552 00000ACD E86B0D                  	call	parse_83_filename
  1553                                  
  1554                                  	; Restore resolved directory
  1555 00000AD0 58                      	pop	ax
  1556 00000AD1 A3[0B3E]                	mov	[resolved_dir_entries], ax
  1557 00000AD4 58                      	pop	ax
  1558 00000AD5 A3[093E]                	mov	[resolved_dir_cluster], ax
  1559                                  
  1560                                  	; Read resolved directory
  1561 00000AD8 E8860A                  	call	read_resolved_dir
  1562 00000ADB 7274                    	jc	.ren_disk_err
  1563                                  
  1564                                  	; Check that new name doesn't already exist
  1565 00000ADD BE0040                  	mov	si, dir_buffer
  1566 00000AE0 8B0E[0B3E]              	mov	cx, [resolved_dir_entries]
  1567                                  .ren_check_dup:
  1568 00000AE4 8A04                    	mov	al, [si]
  1569 00000AE6 3C00                    	cmp	al, 0x00
  1570 00000AE8 7418                    	je	.ren_dup_ok
  1571 00000AEA 3CE5                    	cmp	al, 0xE5
  1572 00000AEC 740E                    	je	.ren_check_next
  1573 00000AEE 51                      	push	cx
  1574 00000AEF 56                      	push	si
  1575 00000AF0 BF[083D]                	mov	di, ren_new_fname
  1576 00000AF3 B90B00                  	mov	cx, 11
  1577 00000AF6 F3A6                    	repe	cmpsb
  1578 00000AF8 5E                      	pop	si
  1579 00000AF9 59                      	pop	cx
  1580 00000AFA 7434                    	je	.ren_exists
  1581                                  .ren_check_next:
  1582 00000AFC 83C620                  	add	si, 32
  1583 00000AFF 49                      	dec	cx
  1584 00000B00 75E2                    	jnz	.ren_check_dup
  1585                                  .ren_dup_ok:
  1586                                  
  1587                                  	; Search for old filename
  1588 00000B02 BE0040                  	mov	si, dir_buffer
  1589 00000B05 8B0E[0B3E]              	mov	cx, [resolved_dir_entries]
  1590                                  .ren_search:
  1591 00000B09 8A04                    	mov	al, [si]
  1592 00000B0B 3C00                    	cmp	al, 0x00
  1593 00000B0D 7418                    	je	.ren_not_found
  1594 00000B0F 3CE5                    	cmp	al, 0xE5
  1595 00000B11 740E                    	je	.ren_search_next
  1596 00000B13 51                      	push	cx
  1597 00000B14 56                      	push	si
  1598 00000B15 BF[F03C]                	mov	di, exec_fname
  1599 00000B18 B90B00                  	mov	cx, 11
  1600 00000B1B F3A6                    	repe	cmpsb
  1601 00000B1D 5E                      	pop	si
  1602 00000B1E 59                      	pop	cx
  1603 00000B1F 7418                    	je	.ren_found
  1604                                  .ren_search_next:
  1605 00000B21 83C620                  	add	si, 32
  1606 00000B24 49                      	dec	cx
  1607 00000B25 75E2                    	jnz	.ren_search
  1608                                  
  1609                                  .ren_not_found:
  1610 00000B27 BE[453A]                	mov	si, msg_not_found
  1611 00000B2A E8952D                  	call	print_string
  1612 00000B2D E99BF5                  	jmp	cmd_loop
  1613                                  
  1614                                  .ren_exists:
  1615 00000B30 BE[EF3A]                	mov	si, msg_ren_exists
  1616 00000B33 E88C2D                  	call	print_string
  1617 00000B36 E992F5                  	jmp	cmd_loop
  1618                                  
  1619                                  .ren_found:
  1620                                  	; Copy new name into directory entry
  1621 00000B39 89F7                    	mov	di, si			; DI = directory entry
  1622 00000B3B BE[083D]                	mov	si, ren_new_fname
  1623 00000B3E B90B00                  	mov	cx, 11
  1624 00000B41 F3A4                    	rep	movsb
  1625                                  
  1626                                  	; Write resolved directory back
  1627 00000B43 E8540A                  	call	write_resolved_dir
  1628 00000B46 7209                    	jc	.ren_disk_err
  1629                                  
  1630 00000B48 BE[C33A]                	mov	si, msg_renamed
  1631 00000B4B E8742D                  	call	print_string
  1632 00000B4E E97AF5                  	jmp	cmd_loop
  1633                                  
  1634                                  .ren_disk_err:
  1635 00000B51 BE[853A]                	mov	si, msg_disk_err
  1636 00000B54 E86B2D                  	call	print_string
  1637 00000B57 E971F5                  	jmp	cmd_loop
  1638                                  
  1639                                  ; ============================================================================
  1640                                  ; COPY — copy a file
  1641                                  ; ============================================================================
  1642                                  do_copy:
  1643                                  	; SI points past "COPY" — get source filename
  1644 00000B5A E8C72D                  	call	skip_spaces
  1645 00000B5D 803C00                  	cmp	byte [si], 0
  1646 00000B60 7509                    	jne	.copy_has_src
  1647 00000B62 BE[343B]                	mov	si, msg_copy_usage
  1648 00000B65 E85A2D                  	call	print_string
  1649 00000B68 E960F5                  	jmp	cmd_loop
  1650                                  .copy_has_src:
  1651                                  	; Resolve source path
  1652 00000B6B E8D608                  	call	resolve_path
  1653 00000B6E 7303E90901              	jc	.copy_not_found
  1654                                  
  1655                                  	; Save source directory info and filename
  1656 00000B73 56                      	push	si			; Save SI (points past source in cmd_buffer)
  1657 00000B74 A1[093E]                	mov	ax, [resolved_dir_cluster]
  1658 00000B77 A3[213D]                	mov	[copy_src_dir_cl], ax
  1659 00000B7A A1[0B3E]                	mov	ax, [resolved_dir_entries]
  1660 00000B7D A3[233D]                	mov	[copy_src_dir_ent], ax
  1661 00000B80 A0[0D3E]                	mov	al, [resolved_drive]
  1662 00000B83 A2[293D]                	mov	[copy_src_drv], al
  1663                                  	; Copy source 8.3 name to a safe place
  1664 00000B86 BE[F03C]                	mov	si, exec_fname
  1665 00000B89 BF[2B3D]                	mov	di, copy_src_name
  1666 00000B8C B90B00                  	mov	cx, 11
  1667 00000B8F F3A4                    	rep	movsb
  1668 00000B91 5E                      	pop	si			; Restore SI to cmd_buffer position
  1669                                  
  1670                                  	; Get dest path
  1671 00000B92 E88F2D                  	call	skip_spaces
  1672 00000B95 803C00                  	cmp	byte [si], 0
  1673 00000B98 7509                    	jne	.copy_has_dst
  1674 00000B9A BE[343B]                	mov	si, msg_copy_usage
  1675 00000B9D E8222D                  	call	print_string
  1676 00000BA0 E928F5                  	jmp	cmd_loop
  1677                                  .copy_has_dst:
  1678                                  	; Resolve dest path
  1679 00000BA3 E89E08                  	call	resolve_path
  1680 00000BA6 7303E91E02              	jc	.copy_disk_err
  1681                                  	; If dest filename is blank (just a drive/path), use source filename
  1682 00000BAB 803E[F03C]20            	cmp	byte [exec_fname], ' '
  1683 00000BB0 750B                    	jne	.copy_has_dest_name
  1684 00000BB2 BE[2B3D]                	mov	si, copy_src_name
  1685 00000BB5 BF[F03C]                	mov	di, exec_fname
  1686 00000BB8 B90B00                  	mov	cx, 11
  1687 00000BBB F3A4                    	rep	movsb
  1688                                  .copy_has_dest_name:
  1689                                  	; Copy dest name to ren_new_fname
  1690 00000BBD BE[F03C]                	mov	si, exec_fname
  1691 00000BC0 BF[083D]                	mov	di, ren_new_fname
  1692 00000BC3 B90B00                  	mov	cx, 11
  1693 00000BC6 F3A4                    	rep	movsb
  1694                                  
  1695                                  	; Read dest directory to check for duplicates
  1696 00000BC8 E89609                  	call	read_resolved_dir
  1697 00000BCB 7303E9F901              	jc	.copy_disk_err
  1698                                  
  1699                                  	; Save dest directory info
  1700 00000BD0 A1[093E]                	mov	ax, [resolved_dir_cluster]
  1701 00000BD3 A3[253D]                	mov	[copy_dst_dir_cl], ax
  1702 00000BD6 A1[0B3E]                	mov	ax, [resolved_dir_entries]
  1703 00000BD9 A3[273D]                	mov	[copy_dst_dir_ent], ax
  1704 00000BDC A0[0D3E]                	mov	al, [resolved_drive]
  1705 00000BDF A2[2A3D]                	mov	[copy_dst_drv], al
  1706                                  
  1707                                  	; Check dest doesn't exist
  1708 00000BE2 BE0040                  	mov	si, dir_buffer
  1709 00000BE5 8B0E[0B3E]              	mov	cx, [resolved_dir_entries]
  1710                                  .copy_check_dup:
  1711 00000BE9 8A04                    	mov	al, [si]
  1712 00000BEB 3C00                    	cmp	al, 0x00
  1713 00000BED 741B                    	je	.copy_dup_ok
  1714 00000BEF 3CE5                    	cmp	al, 0xE5
  1715 00000BF1 7411                    	je	.copy_dup_next
  1716 00000BF3 51                      	push	cx
  1717 00000BF4 56                      	push	si
  1718 00000BF5 BF[083D]                	mov	di, ren_new_fname
  1719 00000BF8 B90B00                  	mov	cx, 11
  1720 00000BFB F3A6                    	repe	cmpsb
  1721 00000BFD 5E                      	pop	si
  1722 00000BFE 59                      	pop	cx
  1723 00000BFF 7503E98100              	je	.copy_exists
  1724                                  .copy_dup_next:
  1725 00000C04 83C620                  	add	si, 32
  1726 00000C07 49                      	dec	cx
  1727 00000C08 75DF                    	jnz	.copy_check_dup
  1728                                  .copy_dup_ok:
  1729                                  
  1730                                  	; Find free directory entry in dest dir (before we overwrite dir_buffer)
  1731 00000C0A BE0040                  	mov	si, dir_buffer
  1732 00000C0D 8B0E[0B3E]              	mov	cx, [resolved_dir_entries]
  1733                                  .copy_find_free:
  1734 00000C11 8A04                    	mov	al, [si]
  1735 00000C13 3C00                    	cmp	al, 0x00
  1736 00000C15 7413                    	je	.copy_free_found
  1737 00000C17 3CE5                    	cmp	al, 0xE5
  1738 00000C19 740F                    	je	.copy_free_found
  1739 00000C1B 83C620                  	add	si, 32
  1740 00000C1E 49                      	dec	cx
  1741 00000C1F 75F0                    	jnz	.copy_find_free
  1742 00000C21 BE[833B]                	mov	si, msg_dir_full
  1743 00000C24 E89B2C                  	call	print_string
  1744 00000C27 E9A1F4                  	jmp	cmd_loop
  1745                                  .copy_free_found:
  1746 00000C2A 89F0                    	mov	ax, si
  1747 00000C2C 2D0040                  	sub	ax, dir_buffer
  1748 00000C2F A3[1E3D]                	mov	[copy_dest_dir], ax	; Save offset, not raw pointer
  1749                                  
  1750                                  	; Re-read source directory to find source file
  1751 00000C32 A1[213D]                	mov	ax, [copy_src_dir_cl]
  1752 00000C35 A3[093E]                	mov	[resolved_dir_cluster], ax
  1753 00000C38 A1[233D]                	mov	ax, [copy_src_dir_ent]
  1754 00000C3B A3[0B3E]                	mov	[resolved_dir_entries], ax
  1755 00000C3E A0[293D]                	mov	al, [copy_src_drv]
  1756 00000C41 A2[0D3E]                	mov	[resolved_drive], al
  1757 00000C44 E81A09                  	call	read_resolved_dir
  1758 00000C47 7303E97D01              	jc	.copy_disk_err
  1759                                  
  1760                                  	; Restore source filename to exec_fname
  1761 00000C4C BE[2B3D]                	mov	si, copy_src_name
  1762 00000C4F BF[F03C]                	mov	di, exec_fname
  1763 00000C52 B90B00                  	mov	cx, 11
  1764 00000C55 F3A4                    	rep	movsb
  1765                                  
  1766                                  	; Find source file
  1767 00000C57 BE0040                  	mov	si, dir_buffer
  1768 00000C5A 8B0E[0B3E]              	mov	cx, [resolved_dir_entries]
  1769                                  .copy_search:
  1770 00000C5E 8A04                    	mov	al, [si]
  1771 00000C60 3C00                    	cmp	al, 0x00
  1772 00000C62 7418                    	je	.copy_not_found
  1773 00000C64 3CE5                    	cmp	al, 0xE5
  1774 00000C66 740E                    	je	.copy_search_next
  1775 00000C68 51                      	push	cx
  1776 00000C69 56                      	push	si
  1777 00000C6A BF[F03C]                	mov	di, exec_fname
  1778 00000C6D B90B00                  	mov	cx, 11
  1779 00000C70 F3A6                    	repe	cmpsb
  1780 00000C72 5E                      	pop	si
  1781 00000C73 59                      	pop	cx
  1782 00000C74 7418                    	je	.copy_found_src
  1783                                  .copy_search_next:
  1784 00000C76 83C620                  	add	si, 32
  1785 00000C79 49                      	dec	cx
  1786 00000C7A 75E2                    	jnz	.copy_search
  1787                                  
  1788                                  .copy_not_found:
  1789 00000C7C BE[453A]                	mov	si, msg_not_found
  1790 00000C7F E8402C                  	call	print_string
  1791 00000C82 E946F4                  	jmp	cmd_loop
  1792                                  
  1793                                  .copy_exists:
  1794 00000C85 BE[EF3A]                	mov	si, msg_ren_exists
  1795 00000C88 E8372C                  	call	print_string
  1796 00000C8B E93DF4                  	jmp	cmd_loop
  1797                                  
  1798                                  .copy_found_src:
  1799                                  	; Save source info
  1800 00000C8E 8B441A                  	mov	ax, [si+26]
  1801 00000C91 A3[163E]                	mov	[exec_cluster], ax	; Source start cluster
  1802 00000C94 8B441C                  	mov	ax, [si+28]
  1803 00000C97 A3[183E]                	mov	[exec_size], ax		; File size low
  1804 00000C9A 8B441E                  	mov	ax, [si+30]
  1805 00000C9D A3[1A3E]                	mov	[exec_size+2], ax	; File size high
  1806                                  	; Save file attributes
  1807 00000CA0 8A440B                  	mov	al, [si+11]
  1808 00000CA3 A2[203D]                	mov	[copy_src_attr], al
  1809                                  
  1810                                  	; Load FAT from dest drive (allocating clusters there)
  1811 00000CA6 A0[2A3D]                	mov	al, [copy_dst_drv]
  1812 00000CA9 A2[0D3E]                	mov	[resolved_drive], al
  1813 00000CAC E84E07                  	call	read_fat
  1814 00000CAF 7303E91501              	jc	.copy_disk_err
  1815                                  
  1816                                  	; Allocate clusters for dest by copying source data
  1817                                  	; Walk source FAT chain, for each source cluster:
  1818                                  	;   1. Find a free cluster in FAT
  1819                                  	;   2. Read source cluster data
  1820                                  	;   3. Write data to dest cluster
  1821                                  	;   4. Link dest cluster in FAT chain
  1822                                  
  1823 00000CB4 A1[163E]                	mov	ax, [exec_cluster]	; Source cluster
  1824 00000CB7 C706[1A3D]0000          	mov	word [copy_prev_cl], 0	; No previous dest cluster yet
  1825 00000CBD C706[1C3D]0000          	mov	word [copy_first_cl], 0	; First dest cluster (for dir entry)
  1826                                  
  1827                                  .copy_next_cluster:
  1828 00000CC3 A3[163D]                	mov	[copy_src_cl], ax	; Save current source cluster
  1829                                  
  1830                                  	; Find a free cluster in FAT (search from cluster 2)
  1831 00000CC6 50                      	push	ax
  1832 00000CC7 B80200                  	mov	ax, 2
  1833                                  .copy_find_free_cl:
  1834 00000CCA 3DD002                  	cmp	ax, 720			; Max clusters for 360K
  1835 00000CCD 7203E9ED00              	jae	.copy_disk_full_pop
  1836 00000CD2 50                      	push	ax
  1837 00000CD3 E82201                  	call	fat12_read_cluster
  1838 00000CD6 83F800                  	cmp	ax, 0
  1839 00000CD9 58                      	pop	ax
  1840 00000CDA 7403                    	je	.copy_got_free_cl
  1841 00000CDC 40                      	inc	ax
  1842 00000CDD EBEB                    	jmp	.copy_find_free_cl
  1843                                  .copy_got_free_cl:
  1844 00000CDF A3[183D]                	mov	[copy_dest_cl], ax
  1845                                  
  1846                                  	; Mark dest cluster as EOF in FAT
  1847 00000CE2 50                      	push	ax
  1848 00000CE3 BBFF0F                  	mov	bx, 0xFFF		; EOF marker
  1849 00000CE6 E83A01                  	call	fat12_write_cluster
  1850 00000CE9 58                      	pop	ax
  1851                                  
  1852                                  	; Link previous dest cluster to this one
  1853 00000CEA 833E[1A3D]00            	cmp	word [copy_prev_cl], 0
  1854 00000CEF 740E                    	je	.copy_first
  1855 00000CF1 50                      	push	ax
  1856 00000CF2 A1[1A3D]                	mov	ax, [copy_prev_cl]
  1857 00000CF5 8B1E[183D]              	mov	bx, [copy_dest_cl]
  1858 00000CF9 E82701                  	call	fat12_write_cluster
  1859 00000CFC 58                      	pop	ax
  1860 00000CFD EB06                    	jmp	.copy_linked
  1861                                  .copy_first:
  1862 00000CFF A1[183D]                	mov	ax, [copy_dest_cl]
  1863 00000D02 A3[1C3D]                	mov	[copy_first_cl], ax
  1864                                  .copy_linked:
  1865 00000D05 A1[183D]                	mov	ax, [copy_dest_cl]
  1866 00000D08 A3[1A3D]                	mov	[copy_prev_cl], ax
  1867                                  
  1868                                  	; Read source cluster into dir_buffer
  1869 00000D0B A1[163D]                	mov	ax, [copy_src_cl]
  1870 00000D0E E8C100                  	call	cluster_to_chs
  1871 00000D11 B80008                  	mov	ax, SHELL_SEG
  1872 00000D14 8EC0                    	mov	es, ax
  1873 00000D16 BB0040                  	mov	bx, dir_buffer
  1874 00000D19 B402                    	mov	ah, 0x02
  1875 00000D1B B002                    	mov	al, SECS_PER_CLUST
  1876 00000D1D 8A16[293D]              	mov	dl, [copy_src_drv]
  1877 00000D21 CD13                    	int	0x13
  1878 00000D23 58                      	pop	ax			; Discard saved source cluster from find_free
  1879 00000D24 7303E9A000              	jc	.copy_disk_err
  1880                                  
  1881                                  	; Write data to dest cluster
  1882 00000D29 A1[183D]                	mov	ax, [copy_dest_cl]
  1883 00000D2C E8A300                  	call	cluster_to_chs
  1884 00000D2F B80008                  	mov	ax, SHELL_SEG
  1885 00000D32 8EC0                    	mov	es, ax
  1886 00000D34 BB0040                  	mov	bx, dir_buffer
  1887 00000D37 B403                    	mov	ah, 0x03
  1888 00000D39 B002                    	mov	al, SECS_PER_CLUST
  1889 00000D3B 8A16[2A3D]              	mov	dl, [copy_dst_drv]
  1890 00000D3F CD13                    	int	0x13
  1891 00000D41 7303E98300              	jc	.copy_disk_err
  1892                                  
  1893                                  	; Get next source cluster
  1894 00000D46 A1[163D]                	mov	ax, [copy_src_cl]
  1895 00000D49 E8AF0F                  	call	fat12_next_cluster
  1896 00000D4C 3DF80F                  	cmp	ax, 0xFF8
  1897 00000D4F 7303E96FFF              	jb	.copy_next_cluster
  1898                                  
  1899                                  	; Write updated FAT (both copies)
  1900 00000D54 E8BF06                  	call	write_fat
  1901 00000D57 7270                    	jc	.copy_disk_err
  1902                                  
  1903                                  	; Switch to dest directory and re-read
  1904 00000D59 A1[253D]                	mov	ax, [copy_dst_dir_cl]
  1905 00000D5C A3[093E]                	mov	[resolved_dir_cluster], ax
  1906 00000D5F A1[273D]                	mov	ax, [copy_dst_dir_ent]
  1907 00000D62 A3[0B3E]                	mov	[resolved_dir_entries], ax
  1908 00000D65 A0[2A3D]                	mov	al, [copy_dst_drv]
  1909 00000D68 A2[0D3E]                	mov	[resolved_drive], al
  1910 00000D6B E8F307                  	call	read_resolved_dir
  1911 00000D6E 7259                    	jc	.copy_disk_err
  1912                                  
  1913                                  	; Fill in the dest directory entry (reconstruct pointer from offset)
  1914 00000D70 BF0040                  	mov	di, dir_buffer
  1915 00000D73 033E[1E3D]              	add	di, [copy_dest_dir]
  1916 00000D77 BE[083D]                	mov	si, ren_new_fname
  1917 00000D7A B90B00                  	mov	cx, 11
  1918 00000D7D F3A4                    	rep	movsb			; Copy filename
  1919 00000D7F A0[203D]                	mov	al, [copy_src_attr]
  1920 00000D82 8805                    	mov	[di], al		; Attribute (DI now at offset 11)
  1921                                  	; Zero out the rest of the entry (times, dates)
  1922 00000D84 47                      	inc	di
  1923 00000D85 B90E00                  	mov	cx, 14			; Offsets 12-25
  1924 00000D88 30C0                    	xor	al, al
  1925 00000D8A F3AA                    	rep	stosb
  1926 00000D8C A1[1C3D]                	mov	ax, [copy_first_cl]
  1927 00000D8F 8905                    	mov	[di], ax		; Starting cluster at offset 26
  1928 00000D91 83C702                  	add	di, 2
  1929 00000D94 A1[183E]                	mov	ax, [exec_size]
  1930 00000D97 8905                    	mov	[di], ax		; File size low at offset 28
  1931 00000D99 83C702                  	add	di, 2
  1932 00000D9C A1[1A3E]                	mov	ax, [exec_size+2]
  1933 00000D9F 8905                    	mov	[di], ax		; File size high at offset 30
  1934                                  
  1935                                  	; Write resolved directory back
  1936 00000DA1 E8F607                  	call	write_resolved_dir
  1937 00000DA4 7223                    	jc	.copy_disk_err
  1938                                  
  1939                                  	; Print file copied message with size
  1940 00000DA6 BE[4E3B]                	mov	si, msg_copy_ok1
  1941 00000DA9 E8162B                  	call	print_string
  1942 00000DAC A1[183E]                	mov	ax, [exec_size]
  1943 00000DAF 8B16[1A3E]              	mov	dx, [exec_size+2]
  1944 00000DB3 E8AC2B                  	call	print_decimal_32
  1945 00000DB6 BE[573B]                	mov	si, msg_copy_ok2
  1946 00000DB9 E8062B                  	call	print_string
  1947 00000DBC E90CF3                  	jmp	cmd_loop
  1948                                  
  1949                                  .copy_disk_full_pop:
  1950 00000DBF 58                      	pop	ax			; Clean stack
  1951 00000DC0 BE[693B]                	mov	si, msg_disk_full
  1952 00000DC3 E8FC2A                  	call	print_string
  1953 00000DC6 E902F3                  	jmp	cmd_loop
  1954                                  
  1955                                  .copy_disk_err:
  1956 00000DC9 BE[853A]                	mov	si, msg_disk_err
  1957 00000DCC E8F32A                  	call	print_string
  1958 00000DCF E9F9F2                  	jmp	cmd_loop
  1959                                  
  1960                                  ; ============================================================================
  1961                                  ; cluster_to_chs — Convert cluster number to CHS in CH/CL/DH
  1962                                  ; ============================================================================
  1963                                  ; Input:  AX = cluster number
  1964                                  ; Output: CH = cylinder, CL = sector (1-based), DH = head
  1965                                  ;
  1966                                  cluster_to_chs:
  1967 00000DD2 83E802                  	sub	ax, 2
  1968 00000DD5 B90200                  	mov	cx, SECS_PER_CLUST
  1969 00000DD8 F7E1                    	mul	cx
  1970 00000DDA 83C00C                  	add	ax, DATA_START_SEC
  1971 00000DDD 31D2                    	xor	dx, dx
  1972 00000DDF B91200                  	mov	cx, 18
  1973 00000DE2 F7F1                    	div	cx
  1974 00000DE4 50                      	push	ax			; Save cylinder
  1975 00000DE5 89D0                    	mov	ax, dx
  1976 00000DE7 31D2                    	xor	dx, dx
  1977 00000DE9 B90900                  	mov	cx, 9
  1978 00000DEC F7F1                    	div	cx
  1979 00000DEE 88C6                    	mov	dh, al			; Head
  1980 00000DF0 88D1                    	mov	cl, dl
  1981 00000DF2 FEC1                    	inc	cl			; Sector (1-based)
  1982 00000DF4 58                      	pop	ax
  1983 00000DF5 88C5                    	mov	ch, al			; Cylinder
  1984 00000DF7 C3                      	ret
  1985                                  
  1986                                  ; ============================================================================
  1987                                  ; fat12_read_cluster — Read FAT12 entry for a cluster
  1988                                  ; ============================================================================
  1989                                  ; Input:  AX = cluster number
  1990                                  ; Output: AX = FAT entry value
  1991                                  ;
  1992                                  fat12_read_cluster:
  1993 00000DF8 53                      	push	bx
  1994 00000DF9 51                      	push	cx
  1995 00000DFA 52                      	push	dx
  1996 00000DFB 89C2                    	mov	dx, ax			; Save cluster number for odd/even test
  1997 00000DFD 89C3                    	mov	bx, ax
  1998 00000DFF 89C1                    	mov	cx, ax
  1999 00000E01 D1E9                    	shr	cx, 1
  2000 00000E03 01CB                    	add	bx, cx			; BX = byte offset in FAT
  2001 00000E05 1E                      	push	ds
  2002 00000E06 B90008                  	mov	cx, SHELL_SEG
  2003 00000E09 8ED9                    	mov	ds, cx
  2004 00000E0B 8B87004E                	mov	ax, [fat_buffer + bx]
  2005 00000E0F 1F                      	pop	ds
  2006 00000E10 F7C20100                	test	dx, 1			; Test original cluster number
  2007 00000E14 7406                    	jz	.frc_even
  2008 00000E16 B104                    	mov	cl, 4
  2009 00000E18 D3E8                    	shr	ax, cl
  2010 00000E1A EB03                    	jmp	.frc_done
  2011                                  .frc_even:
  2012 00000E1C 25FF0F                  	and	ax, 0x0FFF
  2013                                  .frc_done:
  2014 00000E1F 5A                      	pop	dx
  2015 00000E20 59                      	pop	cx
  2016 00000E21 5B                      	pop	bx
  2017 00000E22 C3                      	ret
  2018                                  
  2019                                  ; ============================================================================
  2020                                  ; fat12_write_cluster — Write FAT12 entry for a cluster
  2021                                  ; ============================================================================
  2022                                  ; Input:  AX = cluster number, BX = value to write
  2023                                  ;
  2024                                  fat12_write_cluster:
  2025 00000E23 51                      	push	cx
  2026 00000E24 52                      	push	dx
  2027 00000E25 57                      	push	di
  2028 00000E26 89C7                    	mov	di, ax
  2029 00000E28 89C1                    	mov	cx, ax
  2030 00000E2A D1E9                    	shr	cx, 1
  2031 00000E2C 01CF                    	add	di, cx			; DI = byte offset in FAT
  2032 00000E2E 1E                      	push	ds
  2033 00000E2F B90008                  	mov	cx, SHELL_SEG
  2034 00000E32 8ED9                    	mov	ds, cx
  2035 00000E34 A90100                  	test	ax, 1
  2036 00000E37 7413                    	jz	.fwc_even
  2037                                  	; Odd: write to high 12 bits
  2038 00000E39 B104                    	mov	cl, 4
  2039 00000E3B D3E3                    	shl	bx, cl
  2040 00000E3D 8B85004E                	mov	ax, [fat_buffer + di]
  2041 00000E41 83E00F                  	and	ax, 0x000F
  2042 00000E44 09D8                    	or	ax, bx
  2043 00000E46 8985004E                	mov	[fat_buffer + di], ax
  2044 00000E4A EB0D                    	jmp	.fwc_done
  2045                                  .fwc_even:
  2046                                  	; Even: write to low 12 bits
  2047 00000E4C 8B85004E                	mov	ax, [fat_buffer + di]
  2048 00000E50 2500F0                  	and	ax, 0xF000
  2049 00000E53 09D8                    	or	ax, bx
  2050 00000E55 8985004E                	mov	[fat_buffer + di], ax
  2051                                  .fwc_done:
  2052 00000E59 1F                      	pop	ds
  2053 00000E5A 5F                      	pop	di
  2054 00000E5B 5A                      	pop	dx
  2055 00000E5C 59                      	pop	cx
  2056 00000E5D C3                      	ret
  2057                                  
  2058                                  ; ============================================================================
  2059                                  ; CD — change current directory
  2060                                  ; ============================================================================
  2061                                  do_cd:
  2062 00000E5E E8C32A                  	call	skip_spaces
  2063 00000E61 803C00                  	cmp	byte [si], 0
  2064 00000E64 7533                    	jne	.cd_has_arg
  2065                                  	; No argument — print current path
  2066 00000E66 A0[083E]                	mov	al, [cur_drive]
  2067 00000E69 0441                    	add	al, 'A'
  2068 00000E6B B40E                    	mov	ah, 0x0E
  2069 00000E6D CD10                    	int	0x10
  2070 00000E6F B03A                    	mov	al, ':'
  2071 00000E71 B40E                    	mov	ah, 0x0E
  2072 00000E73 CD10                    	int	0x10
  2073 00000E75 B05C                    	mov	al, '\'
  2074 00000E77 B40E                    	mov	ah, 0x0E
  2075 00000E79 CD10                    	int	0x10
  2076 00000E7B 803E[073E]00            	cmp	byte [cur_dir_pathlen], 0
  2077 00000E80 7408                    	je	.cd_print_nl
  2078 00000E82 56                      	push	si
  2079 00000E83 BE[C63D]                	mov	si, cur_dir_path
  2080 00000E86 E8392A                  	call	print_string
  2081 00000E89 5E                      	pop	si
  2082                                  .cd_print_nl:
  2083 00000E8A B00D                    	mov	al, 0x0D
  2084 00000E8C B40E                    	mov	ah, 0x0E
  2085 00000E8E CD10                    	int	0x10
  2086 00000E90 B00A                    	mov	al, 0x0A
  2087 00000E92 B40E                    	mov	ah, 0x0E
  2088 00000E94 CD10                    	int	0x10
  2089 00000E96 E932F2                  	jmp	cmd_loop
  2090                                  
  2091                                  .cd_has_arg:
  2092                                  	; Use resolve_path to parse the argument
  2093                                  	; But we need to handle the case where the entire arg is a directory
  2094                                  	; resolve_path returns the PARENT dir + final component name
  2095 00000E99 E8A805                  	call	resolve_path
  2096 00000E9C 7303E9BF01              	jc	.cd_not_found
  2097                                  
  2098                                  	; If exec_fname is blank, the path ended with \ or was just a drive
  2099                                  	; resolved_dir_cluster IS the target directory
  2100 00000EA1 803E[F03C]20            	cmp	byte [exec_fname], ' '
  2101 00000EA6 7452                    	je	.cd_set_dir
  2102                                  
  2103                                  	; exec_fname has a name — look it up as a directory
  2104 00000EA8 E8B606                  	call	read_resolved_dir
  2105 00000EAB 7303E9B901              	jc	.cd_disk_err
  2106 00000EB0 BE0040                  	mov	si, dir_buffer
  2107 00000EB3 8B0E[0B3E]              	mov	cx, [resolved_dir_entries]
  2108                                  .cd_search:
  2109 00000EB7 8A04                    	mov	al, [si]
  2110 00000EB9 3C00                    	cmp	al, 0
  2111 00000EBB 7503E9A001              	je	.cd_not_found
  2112 00000EC0 3CE5                    	cmp	al, 0xE5
  2113 00000EC2 7414                    	je	.cd_search_next
  2114 00000EC4 F6440B10                	test	byte [si+11], 0x10
  2115 00000EC8 740E                    	jz	.cd_search_next
  2116 00000ECA 51                      	push	cx
  2117 00000ECB 56                      	push	si
  2118 00000ECC BF[F03C]                	mov	di, exec_fname
  2119 00000ECF B90B00                  	mov	cx, 11
  2120 00000ED2 F3A6                    	repe	cmpsb
  2121 00000ED4 5E                      	pop	si
  2122 00000ED5 59                      	pop	cx
  2123 00000ED6 7409                    	je	.cd_found
  2124                                  .cd_search_next:
  2125 00000ED8 83C620                  	add	si, 32
  2126 00000EDB 49                      	dec	cx
  2127 00000EDC 75D9                    	jnz	.cd_search
  2128 00000EDE E97F01                  	jmp	.cd_not_found
  2129                                  
  2130                                  .cd_found:
  2131 00000EE1 8B441A                  	mov	ax, [si+26]
  2132 00000EE4 A3[093E]                	mov	[resolved_dir_cluster], ax
  2133 00000EE7 83F800                  	cmp	ax, 0
  2134 00000EEA 7508                    	jne	.cd_is_sub
  2135 00000EEC C706[0B3E]7000          	mov	word [resolved_dir_entries], MAX_DIR_ENTRIES
  2136 00000EF2 EB06                    	jmp	.cd_set_dir
  2137                                  .cd_is_sub:
  2138 00000EF4 C706[0B3E]2000          	mov	word [resolved_dir_entries], SECS_PER_CLUST * 512 / 32
  2139                                  
  2140                                  .cd_set_dir:
  2141                                  	; If changing to a different drive, save current and load new
  2142 00000EFA A0[0D3E]                	mov	al, [resolved_drive]
  2143 00000EFD 3A06[083E]              	cmp	al, [cur_drive]
  2144 00000F01 7409                    	je	.cd_same_drive
  2145 00000F03 E8F403                  	call	save_drive_state	; Save old drive state
  2146 00000F06 A0[0D3E]                	mov	al, [resolved_drive]
  2147 00000F09 A2[083E]                	mov	[cur_drive], al
  2148                                  .cd_same_drive:
  2149                                  	; Set current directory to resolved
  2150 00000F0C A1[093E]                	mov	ax, [resolved_dir_cluster]
  2151 00000F0F A3[C23D]                	mov	[cur_dir_cluster], ax
  2152 00000F12 A1[0B3E]                	mov	ax, [resolved_dir_entries]
  2153 00000F15 A3[C43D]                	mov	[cur_dir_entries], ax
  2154                                  
  2155                                  	; If cluster is 0, we're at root — clear path
  2156 00000F18 833E[C23D]00            	cmp	word [cur_dir_cluster], 0
  2157 00000F1D 750D                    	jne	.cd_build_path
  2158 00000F1F C606[073E]00            	mov	byte [cur_dir_pathlen], 0
  2159 00000F24 C606[C63D]00            	mov	byte [cur_dir_path], 0
  2160 00000F29 E99FF1                  	jmp	cmd_loop
  2161                                  
  2162                                  .cd_build_path:
  2163                                  	; Rebuild path from the original argument
  2164                                  	; Parse each component of the original argument and apply it
  2165 00000F2C BE[9F3C]                	mov	si, cmd_buffer
  2166 00000F2F E8F229                  	call	skip_spaces
  2167                                  	; Skip "CD "
  2168 00000F32 83C602                  	add	si, 2
  2169 00000F35 E8EC29                  	call	skip_spaces
  2170                                  
  2171                                  	; Strip drive letter if present
  2172 00000F38 807C013A                	cmp	byte [si+1], ':'
  2173 00000F3C 7503                    	jne	.cd_no_drv_in_path
  2174 00000F3E 83C602                  	add	si, 2
  2175                                  .cd_no_drv_in_path:
  2176                                  
  2177                                  	; Check for absolute path
  2178 00000F41 803C5C                  	cmp	byte [si], '\'
  2179 00000F44 750B                    	jne	.cd_process_components
  2180 00000F46 46                      	inc	si
  2181                                  	; Absolute path — start fresh
  2182 00000F47 C606[073E]00            	mov	byte [cur_dir_pathlen], 0
  2183 00000F4C C606[C63D]00            	mov	byte [cur_dir_path], 0
  2184                                  
  2185                                  .cd_process_components:
  2186                                  	; Process each path component separated by '\'
  2187 00000F51 803C00                  	cmp	byte [si], 0
  2188 00000F54 7503E9F000              	je	.cd_path_final
  2189 00000F59 803C20                  	cmp	byte [si], ' '
  2190 00000F5C 7503E9E800              	je	.cd_path_final
  2191                                  
  2192                                  	; Check for ".."
  2193 00000F61 803C2E                  	cmp	byte [si], '.'
  2194 00000F64 7403E99500              	jne	.cd_comp_name
  2195 00000F69 807C012E                	cmp	byte [si+1], '.'
  2196 00000F6D 7514                    	jne	.cd_check_single_dot
  2197                                  	; Verify ".." is followed by \, null, or space
  2198 00000F6F 807C025C                	cmp	byte [si+2], '\'
  2199 00000F73 742B                    	je	.cd_do_dotdot
  2200 00000F75 807C0200                	cmp	byte [si+2], 0
  2201 00000F79 7425                    	je	.cd_do_dotdot
  2202 00000F7B 807C0220                	cmp	byte [si+2], ' '
  2203 00000F7F 741F                    	je	.cd_do_dotdot
  2204 00000F81 EB7B                    	jmp	.cd_comp_name		; Not ".." — regular name
  2205                                  
  2206                                  .cd_check_single_dot:
  2207                                  	; "." — skip it
  2208 00000F83 807C015C                	cmp	byte [si+1], '\'
  2209 00000F87 740E                    	je	.cd_skip_dot
  2210 00000F89 807C0100                	cmp	byte [si+1], 0
  2211 00000F8D 740D                    	je	.cd_skip_dot_end
  2212 00000F8F 807C0120                	cmp	byte [si+1], ' '
  2213 00000F93 7407                    	je	.cd_skip_dot_end
  2214 00000F95 EB67                    	jmp	.cd_comp_name		; Not "." alone
  2215                                  .cd_skip_dot:
  2216 00000F97 83C602                  	add	si, 2			; skip ".\\"
  2217 00000F9A EBB5                    	jmp	.cd_process_components
  2218                                  .cd_skip_dot_end:
  2219 00000F9C 46                      	inc	si			; skip "."
  2220 00000F9D E9A900                  	jmp	.cd_path_final
  2221                                  
  2222                                  .cd_do_dotdot:
  2223                                  	; Remove last component from cur_dir_path
  2224 00000FA0 803E[073E]00            	cmp	byte [cur_dir_pathlen], 0
  2225 00000FA5 7428                    	je	.cd_dotdot_at_root
  2226 00000FA7 BF[C63D]                	mov	di, cur_dir_path
  2227 00000FAA 8A0E[073E]              	mov	cl, [cur_dir_pathlen]
  2228 00000FAE 30ED                    	xor	ch, ch
  2229 00000FB0 01CF                    	add	di, cx
  2230 00000FB2 4F                      	dec	di
  2231                                  .cd_trim:
  2232 00000FB3 81FF[C63D]              	cmp	di, cur_dir_path
  2233 00000FB7 7216                    	jb	.cd_dotdot_at_root
  2234 00000FB9 7408                    	je	.cd_dotdot_at_root2
  2235 00000FBB 803D5C                  	cmp	byte [di], '\'
  2236 00000FBE 741B                    	je	.cd_trim_done
  2237 00000FC0 4F                      	dec	di
  2238 00000FC1 EBF0                    	jmp	.cd_trim
  2239                                  .cd_dotdot_at_root2:
  2240                                  	; Only one component left — clear it
  2241 00000FC3 C606[C63D]00            	mov	byte [cur_dir_path], 0
  2242 00000FC8 C606[073E]00            	mov	byte [cur_dir_pathlen], 0
  2243 00000FCD EB0F                    	jmp	.cd_dotdot_advance
  2244                                  .cd_dotdot_at_root:
  2245 00000FCF C606[073E]00            	mov	byte [cur_dir_pathlen], 0
  2246 00000FD4 C606[C63D]00            	mov	byte [cur_dir_path], 0
  2247 00000FD9 EB03                    	jmp	.cd_dotdot_advance
  2248                                  .cd_trim_done:
  2249 00000FDB C60500                  	mov	byte [di], 0
  2250                                  .cd_dotdot_advance:
  2251                                  	; Skip ".." and optional trailing '\'
  2252 00000FDE 83C602                  	add	si, 2
  2253 00000FE1 803C5C                  	cmp	byte [si], '\'
  2254 00000FE4 7501                    	jne	.cd_dotdot_recount
  2255 00000FE6 46                      	inc	si
  2256                                  .cd_dotdot_recount:
  2257                                  	; Recount path length
  2258 00000FE7 56                      	push	si
  2259 00000FE8 BE[C63D]                	mov	si, cur_dir_path
  2260 00000FEB 31C9                    	xor	cx, cx
  2261                                  .cd_dotdot_cnt:
  2262 00000FED 803C00                  	cmp	byte [si], 0
  2263 00000FF0 7404                    	je	.cd_dotdot_cnt_done
  2264 00000FF2 41                      	inc	cx
  2265 00000FF3 46                      	inc	si
  2266 00000FF4 EBF7                    	jmp	.cd_dotdot_cnt
  2267                                  .cd_dotdot_cnt_done:
  2268 00000FF6 880E[073E]              	mov	[cur_dir_pathlen], cl
  2269 00000FFA 5E                      	pop	si
  2270 00000FFB E953FF                  	jmp	.cd_process_components
  2271                                  
  2272                                  .cd_comp_name:
  2273                                  	; Regular directory name — append to cur_dir_path
  2274 00000FFE BF[C63D]                	mov	di, cur_dir_path
  2275 00001001 8A0E[073E]              	mov	cl, [cur_dir_pathlen]
  2276 00001005 30ED                    	xor	ch, ch
  2277 00001007 01CF                    	add	di, cx
  2278                                  	; Add separator if path is not empty
  2279 00001009 83F900                  	cmp	cx, 0
  2280 0000100C 7405                    	je	.cd_comp_copy
  2281 0000100E C6055C                  	mov	byte [di], '\'
  2282 00001011 47                      	inc	di
  2283 00001012 41                      	inc	cx
  2284                                  .cd_comp_copy:
  2285                                  	; Bounds check: cur_dir_path is 65 bytes
  2286 00001013 83F93F                  	cmp	cx, 63
  2287 00001016 7331                    	jae	.cd_path_final		; Overflow — stop appending
  2288 00001018 8A04                    	mov	al, [si]
  2289 0000101A 3C00                    	cmp	al, 0
  2290 0000101C 7424                    	je	.cd_comp_end
  2291 0000101E 3C20                    	cmp	al, ' '
  2292 00001020 7420                    	je	.cd_comp_end
  2293 00001022 3C5C                    	cmp	al, '\'
  2294 00001024 7411                    	je	.cd_comp_sep
  2295                                  	; Uppercase
  2296 00001026 3C61                    	cmp	al, 'a'
  2297 00001028 7206                    	jb	.cd_comp_store
  2298 0000102A 3C7A                    	cmp	al, 'z'
  2299 0000102C 7702                    	ja	.cd_comp_store
  2300 0000102E 2C20                    	sub	al, 0x20
  2301                                  .cd_comp_store:
  2302 00001030 8805                    	mov	[di], al
  2303 00001032 46                      	inc	si
  2304 00001033 47                      	inc	di
  2305 00001034 41                      	inc	cx
  2306 00001035 EBDC                    	jmp	.cd_comp_copy
  2307                                  .cd_comp_sep:
  2308 00001037 46                      	inc	si			; skip '\'
  2309 00001038 C60500                  	mov	byte [di], 0		; terminate current path
  2310 0000103B 880E[073E]              	mov	[cur_dir_pathlen], cl
  2311 0000103F E90FFF                  	jmp	.cd_process_components
  2312                                  .cd_comp_end:
  2313 00001042 C60500                  	mov	byte [di], 0
  2314 00001045 880E[073E]              	mov	[cur_dir_pathlen], cl
  2315                                  
  2316                                  .cd_path_final:
  2317                                  	; Recount for safety
  2318 00001049 BE[C63D]                	mov	si, cur_dir_path
  2319 0000104C 31C9                    	xor	cx, cx
  2320                                  .cd_recount_loop:
  2321 0000104E AC                      	lodsb
  2322 0000104F 08C0                    	or	al, al
  2323 00001051 7403                    	jz	.cd_recount_done
  2324 00001053 41                      	inc	cx
  2325 00001054 EBF8                    	jmp	.cd_recount_loop
  2326                                  .cd_recount_done:
  2327 00001056 880E[073E]              	mov	[cur_dir_pathlen], cl
  2328 0000105A E89D02                  	call	save_drive_state	; Persist to per-drive slot
  2329 0000105D E96BF0                  	jmp	cmd_loop
  2330                                  
  2331                                  .cd_not_found:
  2332 00001060 BE[713A]                	mov	si, msg_invalid_dir
  2333 00001063 E85C28                  	call	print_string
  2334 00001066 E962F0                  	jmp	cmd_loop
  2335                                  
  2336                                  .cd_disk_err:
  2337 00001069 BE[853A]                	mov	si, msg_disk_err
  2338 0000106C E85328                  	call	print_string
  2339 0000106F E959F0                  	jmp	cmd_loop
  2340                                  
  2341                                  ; ============================================================================
  2342                                  ; MKDIR — create a new subdirectory
  2343                                  ; ============================================================================
  2344                                  do_mkdir:
  2345 00001072 E8AF28                  	call	skip_spaces
  2346 00001075 803C00                  	cmp	byte [si], 0
  2347 00001078 7509                    	jne	.mkdir_has_name
  2348 0000107A BE[973A]                	mov	si, msg_need_fname
  2349 0000107D E84228                  	call	print_string
  2350 00001080 E948F0                  	jmp	cmd_loop
  2351                                  .mkdir_has_name:
  2352 00001083 E8BE03                  	call	resolve_path
  2353 00001086 7303E94D01              	jc	.mkdir_disk_err
  2354                                  
  2355                                  	; Read resolved directory
  2356 0000108B E8D304                  	call	read_resolved_dir
  2357 0000108E 7303E94501              	jc	.mkdir_disk_err
  2358                                  
  2359                                  	; Check name doesn't exist
  2360 00001093 BE0040                  	mov	si, dir_buffer
  2361 00001096 8B0E[0B3E]              	mov	cx, [resolved_dir_entries]
  2362                                  .mkdir_check_dup:
  2363 0000109A 8A04                    	mov	al, [si]
  2364 0000109C 3C00                    	cmp	al, 0
  2365 0000109E 741B                    	je	.mkdir_dup_ok
  2366 000010A0 3CE5                    	cmp	al, 0xE5
  2367 000010A2 7411                    	je	.mkdir_dup_next
  2368 000010A4 51                      	push	cx
  2369 000010A5 56                      	push	si
  2370 000010A6 BF[F03C]                	mov	di, exec_fname
  2371 000010A9 B90B00                  	mov	cx, 11
  2372 000010AC F3A6                    	repe	cmpsb
  2373 000010AE 5E                      	pop	si
  2374 000010AF 59                      	pop	cx
  2375 000010B0 7503E91101              	je	.mkdir_exists
  2376                                  .mkdir_dup_next:
  2377 000010B5 83C620                  	add	si, 32
  2378 000010B8 49                      	dec	cx
  2379 000010B9 75DF                    	jnz	.mkdir_check_dup
  2380                                  .mkdir_dup_ok:
  2381                                  
  2382                                  	; Find free directory entry
  2383 000010BB BE0040                  	mov	si, dir_buffer
  2384 000010BE 8B0E[0B3E]              	mov	cx, [resolved_dir_entries]
  2385                                  .mkdir_find_free:
  2386 000010C2 8A04                    	mov	al, [si]
  2387 000010C4 3C00                    	cmp	al, 0
  2388 000010C6 7413                    	je	.mkdir_free_found
  2389 000010C8 3CE5                    	cmp	al, 0xE5
  2390 000010CA 740F                    	je	.mkdir_free_found
  2391 000010CC 83C620                  	add	si, 32
  2392 000010CF 49                      	dec	cx
  2393 000010D0 75F0                    	jnz	.mkdir_find_free
  2394 000010D2 BE[833B]                	mov	si, msg_dir_full
  2395 000010D5 E8EA27                  	call	print_string
  2396 000010D8 E9F0EF                  	jmp	cmd_loop
  2397                                  .mkdir_free_found:
  2398 000010DB 89F0                    	mov	ax, si
  2399 000010DD 2D0040                  	sub	ax, dir_buffer
  2400 000010E0 A3[1E3D]                	mov	[copy_dest_dir], ax	; Save offset, not raw pointer
  2401                                  
  2402                                  	; Load FAT
  2403 000010E3 E81703                  	call	read_fat
  2404 000010E6 7303E9ED00              	jc	.mkdir_disk_err
  2405                                  
  2406                                  	; Find a free cluster
  2407 000010EB B80200                  	mov	ax, 2
  2408                                  .mkdir_find_cl:
  2409 000010EE 3DD002                  	cmp	ax, 720
  2410 000010F1 7203E9D900              	jae	.mkdir_full
  2411 000010F6 50                      	push	ax
  2412 000010F7 E8FEFC                  	call	fat12_read_cluster
  2413 000010FA 83F800                  	cmp	ax, 0
  2414 000010FD 58                      	pop	ax
  2415 000010FE 7403                    	je	.mkdir_got_cl
  2416 00001100 40                      	inc	ax
  2417 00001101 EBEB                    	jmp	.mkdir_find_cl
  2418                                  .mkdir_got_cl:
  2419 00001103 A3[183D]                	mov	[copy_dest_cl], ax	; Save allocated cluster
  2420                                  
  2421                                  	; Mark cluster as EOF
  2422 00001106 BBFF0F                  	mov	bx, 0xFFF
  2423 00001109 E817FD                  	call	fat12_write_cluster
  2424                                  
  2425                                  	; Write FAT back
  2426 0000110C E80703                  	call	write_fat
  2427 0000110F 7303E9C400              	jc	.mkdir_disk_err
  2428                                  
  2429                                  	; Get current timestamp for the new directory entries
  2430 00001114 E84526                  	call	get_fat_timestamp
  2431                                  
  2432                                  	; Initialize the new directory cluster with "." and ".." entries
  2433                                  	; Clear dir_buffer first (reuse as temp for the new directory data)
  2434 00001117 BF0040                  	mov	di, dir_buffer
  2435 0000111A B90004                  	mov	cx, SECS_PER_CLUST * 512
  2436 0000111D 30C0                    	xor	al, al
  2437 0000111F F3AA                    	rep	stosb
  2438                                  
  2439                                  	; "." entry — points to itself
  2440 00001121 BF0040                  	mov	di, dir_buffer
  2441 00001124 C6052E                  	mov	byte [di+0], '.'
  2442 00001127 B90A00                  	mov	cx, 10
  2443 0000112A B020                    	mov	al, ' '
  2444 0000112C 57                      	push	di
  2445 0000112D 83C701                  	add	di, 1
  2446 00001130 F3AA                    	rep	stosb
  2447 00001132 5F                      	pop	di
  2448 00001133 C6450B10                	mov	byte [di+11], 0x10	; Directory attribute
  2449 00001137 A1[4F38]                	mov	ax, [cur_fat_time]
  2450 0000113A 894516                  	mov	[di+22], ax
  2451 0000113D A1[5138]                	mov	ax, [cur_fat_date]
  2452 00001140 894518                  	mov	[di+24], ax
  2453 00001143 A1[183D]                	mov	ax, [copy_dest_cl]
  2454 00001146 89451A                  	mov	[di+26], ax		; Starting cluster = self
  2455                                  
  2456                                  	; ".." entry — points to parent
  2457 00001149 83C720                  	add	di, 32
  2458 0000114C C6052E                  	mov	byte [di+0], '.'
  2459 0000114F C645012E                	mov	byte [di+1], '.'
  2460 00001153 B90900                  	mov	cx, 9
  2461 00001156 B020                    	mov	al, ' '
  2462 00001158 57                      	push	di
  2463 00001159 83C702                  	add	di, 2
  2464 0000115C F3AA                    	rep	stosb
  2465 0000115E 5F                      	pop	di
  2466 0000115F C6450B10                	mov	byte [di+11], 0x10	; Directory attribute
  2467 00001163 A1[4F38]                	mov	ax, [cur_fat_time]
  2468 00001166 894516                  	mov	[di+22], ax
  2469 00001169 A1[5138]                	mov	ax, [cur_fat_date]
  2470 0000116C 894518                  	mov	[di+24], ax
  2471 0000116F A1[093E]                	mov	ax, [resolved_dir_cluster]
  2472 00001172 89451A                  	mov	[di+26], ax		; Starting cluster = parent
  2473                                  
  2474                                  	; Write the new directory data to disk
  2475 00001175 A1[183D]                	mov	ax, [copy_dest_cl]
  2476 00001178 E857FC                  	call	cluster_to_chs
  2477 0000117B B80008                  	mov	ax, SHELL_SEG
  2478 0000117E 8EC0                    	mov	es, ax
  2479 00001180 BB0040                  	mov	bx, dir_buffer
  2480 00001183 B403                    	mov	ah, 0x03
  2481 00001185 B002                    	mov	al, SECS_PER_CLUST
  2482 00001187 8A16[0D3E]              	mov	dl, [resolved_drive]
  2483 0000118B CD13                    	int	0x13
  2484 0000118D 7249                    	jc	.mkdir_disk_err
  2485                                  
  2486                                  	; Now re-read the resolved directory to add the entry
  2487 0000118F E8CF03                  	call	read_resolved_dir
  2488 00001192 7244                    	jc	.mkdir_disk_err
  2489                                  
  2490                                  	; Write the directory entry (reconstruct pointer from offset)
  2491 00001194 BF0040                  	mov	di, dir_buffer
  2492 00001197 033E[1E3D]              	add	di, [copy_dest_dir]
  2493 0000119B BE[F03C]                	mov	si, exec_fname
  2494 0000119E B90B00                  	mov	cx, 11
  2495 000011A1 F3A4                    	rep	movsb
  2496 000011A3 C60510                  	mov	byte [di], 0x10		; Directory attribute
  2497 000011A6 47                      	inc	di			; DI now at offset 12
  2498 000011A7 B90A00                  	mov	cx, 10
  2499 000011AA 30C0                    	xor	al, al
  2500 000011AC F3AA                    	rep	stosb			; Zero offsets 12-21
  2501 000011AE A1[4F38]                	mov	ax, [cur_fat_time]
  2502 000011B1 AB                      	stosw				; Offset 22: write time
  2503 000011B2 A1[5138]                	mov	ax, [cur_fat_date]
  2504 000011B5 AB                      	stosw				; Offset 24: write date
  2505 000011B6 A1[183D]                	mov	ax, [copy_dest_cl]
  2506 000011B9 AB                      	stosw				; Offset 26: starting cluster
  2507 000011BA 31C0                    	xor	ax, ax
  2508 000011BC AB                      	stosw				; Offset 28: size low = 0
  2509 000011BD AB                      	stosw				; Offset 30: size high = 0
  2510                                  
  2511                                  	; Write resolved directory back
  2512 000011BE E8D903                  	call	write_resolved_dir
  2513 000011C1 7215                    	jc	.mkdir_disk_err
  2514                                  
  2515 000011C3 E905EF                  	jmp	cmd_loop
  2516                                  
  2517                                  .mkdir_exists:
  2518 000011C6 BE[173B]                	mov	si, msg_mkdir_exists
  2519 000011C9 E8F626                  	call	print_string
  2520 000011CC E9FCEE                  	jmp	cmd_loop
  2521                                  
  2522                                  .mkdir_full:
  2523 000011CF BE[693B]                	mov	si, msg_disk_full
  2524 000011D2 E8ED26                  	call	print_string
  2525 000011D5 E9F3EE                  	jmp	cmd_loop
  2526                                  
  2527                                  .mkdir_disk_err:
  2528 000011D8 BE[853A]                	mov	si, msg_disk_err
  2529 000011DB E8E426                  	call	print_string
  2530 000011DE E9EAEE                  	jmp	cmd_loop
  2531                                  
  2532                                  ; ============================================================================
  2533                                  ; RMDIR — remove an empty directory
  2534                                  ; ============================================================================
  2535                                  do_rmdir:
  2536 000011E1 E84027                  	call	skip_spaces
  2537 000011E4 803C00                  	cmp	byte [si], 0
  2538 000011E7 7509                    	jne	.rmdir_has_name
  2539 000011E9 BE[973A]                	mov	si, msg_need_fname
  2540 000011EC E8D326                  	call	print_string
  2541 000011EF E9D9EE                  	jmp	cmd_loop
  2542                                  .rmdir_has_name:
  2543 000011F2 E84F02                  	call	resolve_path
  2544 000011F5 7233                    	jc	.rmdir_not_found
  2545                                  
  2546                                  	; Read the parent directory (where the dir entry lives)
  2547 000011F7 E86703                  	call	read_resolved_dir
  2548 000011FA 7303E9F200              	jc	.rmdir_disk_err
  2549                                  
  2550                                  	; Find the directory entry
  2551 000011FF BE0040                  	mov	si, dir_buffer
  2552 00001202 8B0E[0B3E]              	mov	cx, [resolved_dir_entries]
  2553                                  .rmdir_search:
  2554 00001206 8A04                    	mov	al, [si]
  2555 00001208 3C00                    	cmp	al, 0
  2556 0000120A 741E                    	je	.rmdir_not_found
  2557 0000120C 3CE5                    	cmp	al, 0xE5
  2558 0000120E 7414                    	je	.rmdir_search_next
  2559 00001210 F6440B10                	test	byte [si+11], 0x10	; Directory?
  2560 00001214 740E                    	jz	.rmdir_search_next
  2561 00001216 51                      	push	cx
  2562 00001217 56                      	push	si
  2563 00001218 BF[F03C]                	mov	di, exec_fname
  2564 0000121B B90B00                  	mov	cx, 11
  2565 0000121E F3A6                    	repe	cmpsb
  2566 00001220 5E                      	pop	si
  2567 00001221 59                      	pop	cx
  2568 00001222 740F                    	je	.rmdir_found
  2569                                  .rmdir_search_next:
  2570 00001224 83C620                  	add	si, 32
  2571 00001227 49                      	dec	cx
  2572 00001228 75DC                    	jnz	.rmdir_search
  2573                                  
  2574                                  .rmdir_not_found:
  2575 0000122A BE[453A]                	mov	si, msg_not_found
  2576 0000122D E89226                  	call	print_string
  2577 00001230 E998EE                  	jmp	cmd_loop
  2578                                  
  2579                                  .rmdir_found:
  2580                                  	; Save the entry offset and cluster
  2581 00001233 89F0                    	mov	ax, si
  2582 00001235 2D0040                  	sub	ax, dir_buffer
  2583 00001238 A3[1E3D]                	mov	[copy_dest_dir], ax	; Save offset, not raw pointer
  2584 0000123B 8B441A                  	mov	ax, [si+26]
  2585 0000123E A3[183D]                	mov	[copy_dest_cl], ax	; Cluster of the directory to remove
  2586                                  
  2587                                  	; Don't allow removing "." or ".."
  2588 00001241 803C2E                  	cmp	byte [si], '.'
  2589 00001244 7518                    	jne	.rmdir_not_dotentry
  2590 00001246 807C0120                	cmp	byte [si+1], ' '
  2591 0000124A 7503E99700              	je	.rmdir_invalid
  2592 0000124F 807C012E                	cmp	byte [si+1], '.'
  2593 00001253 7509                    	jne	.rmdir_not_dotentry
  2594 00001255 807C0220                	cmp	byte [si+2], ' '
  2595 00001259 7503E98800              	je	.rmdir_invalid
  2596                                  .rmdir_not_dotentry:
  2597                                  
  2598                                  	; Check the directory is empty — read its cluster
  2599 0000125E FF36[093E]              	push	word [resolved_dir_cluster]
  2600 00001262 FF36[0B3E]              	push	word [resolved_dir_entries]
  2601 00001266 A1[183D]                	mov	ax, [copy_dest_cl]
  2602 00001269 A3[093E]                	mov	[resolved_dir_cluster], ax
  2603 0000126C C706[0B3E]2000          	mov	word [resolved_dir_entries], SECS_PER_CLUST * 512 / 32
  2604 00001272 E8EC02                  	call	read_resolved_dir
  2605 00001275 7278                    	jc	.rmdir_disk_err_pop
  2606                                  
  2607                                  	; Check entries — only "." and ".." should exist
  2608 00001277 BE0040                  	mov	si, dir_buffer
  2609 0000127A B92000                  	mov	cx, SECS_PER_CLUST * 512 / 32
  2610                                  .rmdir_check_empty:
  2611 0000127D 8A04                    	mov	al, [si]
  2612 0000127F 3C00                    	cmp	al, 0			; End of directory
  2613 00001281 742B                    	je	.rmdir_is_empty
  2614 00001283 3CE5                    	cmp	al, 0xE5		; Deleted
  2615 00001285 7421                    	je	.rmdir_check_next
  2616                                  	; Check for exact "." or ".." entries
  2617 00001287 3C2E                    	cmp	al, '.'
  2618 00001289 7512                    	jne	.rmdir_not_dot
  2619 0000128B 807C0120                	cmp	byte [si+1], ' '	; "." followed by spaces
  2620 0000128F 7417                    	je	.rmdir_check_next
  2621 00001291 807C012E                	cmp	byte [si+1], '.'	; ".." ?
  2622 00001295 7506                    	jne	.rmdir_not_dot
  2623 00001297 807C0220                	cmp	byte [si+2], ' '	; ".." followed by spaces
  2624 0000129B 740B                    	je	.rmdir_check_next
  2625                                  .rmdir_not_dot:
  2626                                  	; Found a real entry — not empty
  2627 0000129D 58                      	pop	ax
  2628 0000129E 58                      	pop	ax
  2629 0000129F BE[BC3B]                	mov	si, msg_rmdir_not_empty
  2630 000012A2 E81D26                  	call	print_string
  2631 000012A5 E923EE                  	jmp	cmd_loop
  2632                                  .rmdir_check_next:
  2633 000012A8 83C620                  	add	si, 32
  2634 000012AB 49                      	dec	cx
  2635 000012AC 75CF                    	jnz	.rmdir_check_empty
  2636                                  
  2637                                  .rmdir_is_empty:
  2638                                  	; Restore parent directory context
  2639 000012AE 58                      	pop	ax
  2640 000012AF A3[0B3E]                	mov	[resolved_dir_entries], ax
  2641 000012B2 58                      	pop	ax
  2642 000012B3 A3[093E]                	mov	[resolved_dir_cluster], ax
  2643                                  
  2644                                  	; Free the directory's cluster in FAT
  2645 000012B6 E84401                  	call	read_fat
  2646 000012B9 7236                    	jc	.rmdir_disk_err
  2647 000012BB A1[183D]                	mov	ax, [copy_dest_cl]
  2648 000012BE BB0000                  	mov	bx, 0x000		; Free cluster
  2649 000012C1 E85FFB                  	call	fat12_write_cluster
  2650 000012C4 E84F01                  	call	write_fat
  2651 000012C7 7228                    	jc	.rmdir_disk_err
  2652                                  
  2653                                  	; Re-read parent directory and mark entry as deleted
  2654 000012C9 E89502                  	call	read_resolved_dir
  2655 000012CC 7223                    	jc	.rmdir_disk_err
  2656 000012CE BE0040                  	mov	si, dir_buffer
  2657 000012D1 0336[1E3D]              	add	si, [copy_dest_dir]	; Reconstruct pointer from offset
  2658 000012D5 C604E5                  	mov	byte [si], 0xE5		; Mark as deleted
  2659 000012D8 E8BF02                  	call	write_resolved_dir
  2660 000012DB 7214                    	jc	.rmdir_disk_err
  2661                                  
  2662 000012DD BE[A83B]                	mov	si, msg_rmdir_ok
  2663 000012E0 E8DF25                  	call	print_string
  2664 000012E3 E9E5ED                  	jmp	cmd_loop
  2665                                  
  2666                                  .rmdir_invalid:
  2667 000012E6 BE[453A]                	mov	si, msg_not_found
  2668 000012E9 E8D625                  	call	print_string
  2669 000012EC E9DCED                  	jmp	cmd_loop
  2670                                  
  2671                                  .rmdir_disk_err_pop:
  2672 000012EF 58                      	pop	ax
  2673 000012F0 58                      	pop	ax
  2674                                  .rmdir_disk_err:
  2675 000012F1 BE[853A]                	mov	si, msg_disk_err
  2676 000012F4 E8CB25                  	call	print_string
  2677 000012F7 E9D1ED                  	jmp	cmd_loop
  2678                                  
  2679                                  ; ============================================================================
  2680                                  ; save_drive_state — Save cur_dir_* to the current drive's slot
  2681                                  ; ============================================================================
  2682                                  save_drive_state:
  2683 000012FA 56                      	push	si
  2684 000012FB 57                      	push	di
  2685 000012FC 51                      	push	cx
  2686 000012FD 803E[083E]00            	cmp	byte [cur_drive], 0
  2687 00001302 751F                    	jne	.sds_b
  2688                                  	; Save to drive A
  2689 00001304 A1[C23D]                	mov	ax, [cur_dir_cluster]
  2690 00001307 A3[363D]                	mov	[drv_a_cluster], ax
  2691 0000130A A1[C43D]                	mov	ax, [cur_dir_entries]
  2692 0000130D A3[383D]                	mov	[drv_a_entries], ax
  2693 00001310 A0[073E]                	mov	al, [cur_dir_pathlen]
  2694 00001313 A2[7B3D]                	mov	[drv_a_pathlen], al
  2695 00001316 BE[C63D]                	mov	si, cur_dir_path
  2696 00001319 BF[3A3D]                	mov	di, drv_a_path
  2697 0000131C B94100                  	mov	cx, 65
  2698 0000131F F3A4                    	rep	movsb
  2699 00001321 EB1D                    	jmp	.sds_done
  2700                                  .sds_b:
  2701 00001323 A1[C23D]                	mov	ax, [cur_dir_cluster]
  2702 00001326 A3[7C3D]                	mov	[drv_b_cluster], ax
  2703 00001329 A1[C43D]                	mov	ax, [cur_dir_entries]
  2704 0000132C A3[7E3D]                	mov	[drv_b_entries], ax
  2705 0000132F A0[073E]                	mov	al, [cur_dir_pathlen]
  2706 00001332 A2[C13D]                	mov	[drv_b_pathlen], al
  2707 00001335 BE[C63D]                	mov	si, cur_dir_path
  2708 00001338 BF[803D]                	mov	di, drv_b_path
  2709 0000133B B94100                  	mov	cx, 65
  2710 0000133E F3A4                    	rep	movsb
  2711                                  .sds_done:
  2712 00001340 59                      	pop	cx
  2713 00001341 5F                      	pop	di
  2714 00001342 5E                      	pop	si
  2715 00001343 C3                      	ret
  2716                                  
  2717                                  ; ============================================================================
  2718                                  ; load_drive_state — Load cur_dir_* from drive A's slot (al=0) or B's (al=1)
  2719                                  ; ============================================================================
  2720                                  ; Input: AL = drive number (0=A, 1=B)
  2721                                  ;
  2722                                  load_drive_state:
  2723 00001344 56                      	push	si
  2724 00001345 57                      	push	di
  2725 00001346 51                      	push	cx
  2726 00001347 3C00                    	cmp	al, 0
  2727 00001349 751F                    	jne	.lds_b
  2728 0000134B A1[363D]                	mov	ax, [drv_a_cluster]
  2729 0000134E A3[C23D]                	mov	[cur_dir_cluster], ax
  2730 00001351 A1[383D]                	mov	ax, [drv_a_entries]
  2731 00001354 A3[C43D]                	mov	[cur_dir_entries], ax
  2732 00001357 A0[7B3D]                	mov	al, [drv_a_pathlen]
  2733 0000135A A2[073E]                	mov	[cur_dir_pathlen], al
  2734 0000135D BE[3A3D]                	mov	si, drv_a_path
  2735 00001360 BF[C63D]                	mov	di, cur_dir_path
  2736 00001363 B94100                  	mov	cx, 65
  2737 00001366 F3A4                    	rep	movsb
  2738 00001368 EB1D                    	jmp	.lds_done
  2739                                  .lds_b:
  2740 0000136A A1[7C3D]                	mov	ax, [drv_b_cluster]
  2741 0000136D A3[C23D]                	mov	[cur_dir_cluster], ax
  2742 00001370 A1[7E3D]                	mov	ax, [drv_b_entries]
  2743 00001373 A3[C43D]                	mov	[cur_dir_entries], ax
  2744 00001376 A0[C13D]                	mov	al, [drv_b_pathlen]
  2745 00001379 A2[073E]                	mov	[cur_dir_pathlen], al
  2746 0000137C BE[803D]                	mov	si, drv_b_path
  2747 0000137F BF[C63D]                	mov	di, cur_dir_path
  2748 00001382 B94100                  	mov	cx, 65
  2749 00001385 F3A4                    	rep	movsb
  2750                                  .lds_done:
  2751 00001387 59                      	pop	cx
  2752 00001388 5F                      	pop	di
  2753 00001389 5E                      	pop	si
  2754 0000138A C3                      	ret
  2755                                  
  2756                                  ; ============================================================================
  2757                                  ; read_cur_dir — Read current directory into dir_buffer
  2758                                  ; ============================================================================
  2759                                  ; Output: carry set on error
  2760                                  ;
  2761                                  read_cur_dir:
  2762 0000138B B80008                  	mov	ax, SHELL_SEG
  2763 0000138E 8EC0                    	mov	es, ax
  2764 00001390 BB0040                  	mov	bx, dir_buffer
  2765 00001393 833E[C23D]00            	cmp	word [cur_dir_cluster], 0
  2766 00001398 7511                    	jne	.rcd_subdir
  2767 0000139A B402                    	mov	ah, 0x02
  2768 0000139C B007                    	mov	al, ROOT_DIR_SECS
  2769 0000139E B500                    	mov	ch, 0
  2770 000013A0 B106                    	mov	cl, ROOT_DIR_SEC + 1
  2771 000013A2 B600                    	mov	dh, 0
  2772 000013A4 8A16[083E]              	mov	dl, [cur_drive]
  2773 000013A8 CD13                    	int	0x13
  2774 000013AA C3                      	ret
  2775                                  .rcd_subdir:
  2776 000013AB A1[C23D]                	mov	ax, [cur_dir_cluster]
  2777 000013AE E821FA                  	call	cluster_to_chs
  2778 000013B1 B80008                  	mov	ax, SHELL_SEG
  2779 000013B4 8EC0                    	mov	es, ax
  2780 000013B6 BB0040                  	mov	bx, dir_buffer
  2781 000013B9 B402                    	mov	ah, 0x02
  2782 000013BB B002                    	mov	al, SECS_PER_CLUST
  2783 000013BD 8A16[083E]              	mov	dl, [cur_drive]
  2784 000013C1 CD13                    	int	0x13
  2785 000013C3 C3                      	ret
  2786                                  
  2787                                  ; ============================================================================
  2788                                  ; write_cur_dir — Write dir_buffer back to current directory
  2789                                  ; ============================================================================
  2790                                  ; Output: carry set on error
  2791                                  ;
  2792                                  write_cur_dir:
  2793 000013C4 B80008                  	mov	ax, SHELL_SEG
  2794 000013C7 8EC0                    	mov	es, ax
  2795 000013C9 BB0040                  	mov	bx, dir_buffer
  2796 000013CC 833E[C23D]00            	cmp	word [cur_dir_cluster], 0
  2797 000013D1 7511                    	jne	.wcd_subdir
  2798 000013D3 B403                    	mov	ah, 0x03
  2799 000013D5 B007                    	mov	al, ROOT_DIR_SECS
  2800 000013D7 B500                    	mov	ch, 0
  2801 000013D9 B106                    	mov	cl, ROOT_DIR_SEC + 1
  2802 000013DB B600                    	mov	dh, 0
  2803 000013DD 8A16[083E]              	mov	dl, [cur_drive]
  2804 000013E1 CD13                    	int	0x13
  2805 000013E3 C3                      	ret
  2806                                  .wcd_subdir:
  2807 000013E4 A1[C23D]                	mov	ax, [cur_dir_cluster]
  2808 000013E7 E8E8F9                  	call	cluster_to_chs
  2809 000013EA B80008                  	mov	ax, SHELL_SEG
  2810 000013ED 8EC0                    	mov	es, ax
  2811 000013EF BB0040                  	mov	bx, dir_buffer
  2812 000013F2 B403                    	mov	ah, 0x03
  2813 000013F4 B002                    	mov	al, SECS_PER_CLUST
  2814 000013F6 8A16[083E]              	mov	dl, [cur_drive]
  2815 000013FA CD13                    	int	0x13
  2816 000013FC C3                      	ret
  2817                                  
  2818                                  ; ============================================================================
  2819                                  ; read_fat — Read FAT into fat_buffer
  2820                                  ; ============================================================================
  2821                                  read_fat:
  2822 000013FD B80008                  	mov	ax, SHELL_SEG
  2823 00001400 8EC0                    	mov	es, ax
  2824 00001402 BB004E                  	mov	bx, fat_buffer
  2825 00001405 B402                    	mov	ah, 0x02
  2826 00001407 B002                    	mov	al, 2
  2827 00001409 B500                    	mov	ch, 0
  2828 0000140B B102                    	mov	cl, FAT_SEC + 1
  2829 0000140D B600                    	mov	dh, 0
  2830 0000140F 8A16[0D3E]              	mov	dl, [resolved_drive]
  2831 00001413 CD13                    	int	0x13
  2832 00001415 C3                      	ret
  2833                                  
  2834                                  ; ============================================================================
  2835                                  ; write_fat — Write fat_buffer to both FAT copies
  2836                                  ; ============================================================================
  2837                                  write_fat:
  2838 00001416 B80008                  	mov	ax, SHELL_SEG
  2839 00001419 8EC0                    	mov	es, ax
  2840 0000141B BB004E                  	mov	bx, fat_buffer
  2841 0000141E B403                    	mov	ah, 0x03
  2842 00001420 B002                    	mov	al, 2
  2843 00001422 B500                    	mov	ch, 0
  2844 00001424 B102                    	mov	cl, FAT_SEC + 1
  2845 00001426 B600                    	mov	dh, 0
  2846 00001428 8A16[0D3E]              	mov	dl, [resolved_drive]
  2847 0000142C CD13                    	int	0x13
  2848 0000142E 7213                    	jc	.wf_done
  2849 00001430 BB004E                  	mov	bx, fat_buffer
  2850 00001433 B403                    	mov	ah, 0x03
  2851 00001435 B002                    	mov	al, 2
  2852 00001437 B500                    	mov	ch, 0
  2853 00001439 B104                    	mov	cl, FAT_SEC + 3
  2854 0000143B B600                    	mov	dh, 0
  2855 0000143D 8A16[0D3E]              	mov	dl, [resolved_drive]
  2856 00001441 CD13                    	int	0x13
  2857                                  .wf_done:
  2858 00001443 C3                      	ret
  2859                                  
  2860                                  ; ============================================================================
  2861                                  ; resolve_path — Resolve a path string to directory cluster + filename
  2862                                  ; ============================================================================
  2863                                  ; Input:  SI = pointer to path string (e.g., "SUBDIR\FILE.TXT" or "\DIR\FILE")
  2864                                  ; Output: resolved_dir_cluster = cluster of directory containing the file
  2865                                  ;         resolved_dir_entries = max entries in that directory
  2866                                  ;         exec_fname = parsed 8.3 filename of the final component
  2867                                  ;         carry set = error (directory not found)
  2868                                  ;         carry clear = success
  2869                                  ;
  2870                                  ; Handles: absolute paths (\DIR\FILE), relative paths (DIR\FILE),
  2871                                  ;          plain filenames (FILE.TXT), ".." components
  2872                                  ;
  2873                                  resolve_path:
  2874 00001444 53                      	push	bx
  2875 00001445 51                      	push	cx
  2876 00001446 52                      	push	dx
  2877                                  
  2878                                  	; Default to current drive
  2879 00001447 A0[083E]                	mov	al, [cur_drive]
  2880 0000144A A2[0D3E]                	mov	[resolved_drive], al
  2881                                  
  2882                                  	; Check for drive letter prefix (e.g., "A:" or "a:")
  2883 0000144D 807C013A                	cmp	byte [si+1], ':'
  2884 00001451 7544                    	jne	.rp_no_drive
  2885 00001453 8A04                    	mov	al, [si]
  2886                                  	; Uppercase
  2887 00001455 3C61                    	cmp	al, 'a'
  2888 00001457 7206                    	jb	.rp_drive_upper
  2889 00001459 3C7A                    	cmp	al, 'z'
  2890 0000145B 773A                    	ja	.rp_no_drive
  2891 0000145D 2C20                    	sub	al, 0x20
  2892                                  .rp_drive_upper:
  2893 0000145F 3C41                    	cmp	al, 'A'
  2894 00001461 7234                    	jb	.rp_no_drive
  2895 00001463 3C42                    	cmp	al, 'B'
  2896 00001465 7730                    	ja	.rp_no_drive
  2897 00001467 2C41                    	sub	al, 'A'			; 0=A, 1=B
  2898 00001469 A2[0D3E]                	mov	[resolved_drive], al
  2899 0000146C 83C602                  	add	si, 2			; Skip "X:"
  2900                                  	; Drive letter with \ = absolute from root
  2901                                  	; Drive letter without \ = relative to that drive's current dir
  2902 0000146F 803C5C                  	cmp	byte [si], '\'
  2903 00001472 7428                    	je	.rp_absolute
  2904                                  	; No backslash — relative to specified drive's current dir
  2905 00001474 803E[0D3E]00            	cmp	byte [resolved_drive], 0
  2906 00001479 750E                    	jne	.rp_drv_b_rel
  2907 0000147B A1[363D]                	mov	ax, [drv_a_cluster]
  2908 0000147E A3[093E]                	mov	[resolved_dir_cluster], ax
  2909 00001481 A1[383D]                	mov	ax, [drv_a_entries]
  2910 00001484 A3[0B3E]                	mov	[resolved_dir_entries], ax
  2911 00001487 EB2E                    	jmp	.rp_parse_component
  2912                                  .rp_drv_b_rel:
  2913 00001489 A1[7C3D]                	mov	ax, [drv_b_cluster]
  2914 0000148C A3[093E]                	mov	[resolved_dir_cluster], ax
  2915 0000148F A1[7E3D]                	mov	ax, [drv_b_entries]
  2916 00001492 A3[0B3E]                	mov	[resolved_dir_entries], ax
  2917 00001495 EB20                    	jmp	.rp_parse_component
  2918                                  .rp_no_drive:
  2919                                  
  2920                                  	; Start from current directory or root
  2921 00001497 803C5C                  	cmp	byte [si], '\'
  2922 0000149A 750F                    	jne	.rp_relative
  2923                                  .rp_absolute:
  2924                                  	; Absolute path — start from root
  2925 0000149C C706[093E]0000          	mov	word [resolved_dir_cluster], 0
  2926 000014A2 C706[0B3E]7000          	mov	word [resolved_dir_entries], MAX_DIR_ENTRIES
  2927 000014A8 46                      	inc	si			; Skip leading '\'
  2928 000014A9 EB0C                    	jmp	.rp_parse_component
  2929                                  .rp_relative:
  2930 000014AB A1[C23D]                	mov	ax, [cur_dir_cluster]
  2931 000014AE A3[093E]                	mov	[resolved_dir_cluster], ax
  2932 000014B1 A1[C43D]                	mov	ax, [cur_dir_entries]
  2933 000014B4 A3[0B3E]                	mov	[resolved_dir_entries], ax
  2934                                  
  2935                                  .rp_parse_component:
  2936                                  	; Check if we're at the end of the string
  2937 000014B7 803C00                  	cmp	byte [si], 0
  2938 000014BA 7503E99300              	je	.rp_no_file		; Path ends with no filename
  2939 000014BF 803C20                  	cmp	byte [si], ' '
  2940 000014C2 7503E98B00              	je	.rp_no_file
  2941                                  
  2942                                  	; Parse next component into exec_fname
  2943 000014C7 BF[F03C]                	mov	di, exec_fname
  2944 000014CA E86E03                  	call	parse_83_filename
  2945                                  
  2946                                  	; Check if there's more path after this component
  2947                                  	; SI was advanced by parse_83_filename
  2948                                  	; Check if we stopped at a '\'
  2949 000014CD 803C5C                  	cmp	byte [si], '\'
  2950 000014D0 7404                    	je	.rp_descend
  2951                                  	; No more '\' — this is the final filename
  2952                                  	; resolved_dir_cluster and exec_fname are set
  2953 000014D2 F8                      	clc
  2954 000014D3 E98700                  	jmp	.rp_done
  2955                                  
  2956                                  .rp_descend:
  2957 000014D6 46                      	inc	si			; Skip the '\'
  2958                                  
  2959                                  	; Handle "." (current dir) — skip it, no directory lookup needed
  2960 000014D7 803E[F03C]2E            	cmp	byte [exec_fname], '.'
  2961 000014DC 751E                    	jne	.rp_not_dot
  2962 000014DE 803E[F13C]20            	cmp	byte [exec_fname+1], ' '
  2963 000014E3 74D2                    	je	.rp_parse_component	; "." — stay in current dir, continue parsing
  2964                                  
  2965                                  	; Handle ".." — look up ".." entry (works in subdirs)
  2966                                  	; For root dir (cluster 0), ".." stays at root
  2967 000014E5 803E[F13C]2E            	cmp	byte [exec_fname+1], '.'
  2968 000014EA 7510                    	jne	.rp_not_dot
  2969 000014EC 803E[F23C]20            	cmp	byte [exec_fname+2], ' '
  2970 000014F1 7509                    	jne	.rp_not_dot
  2971 000014F3 833E[093E]00            	cmp	word [resolved_dir_cluster], 0
  2972 000014F8 7502                    	jne	.rp_not_dot		; Not root — normal lookup will find ".."
  2973                                  	; At root, ".." stays at root
  2974 000014FA EBBB                    	jmp	.rp_parse_component
  2975                                  
  2976                                  .rp_not_dot:
  2977                                  	; Look up this component in the current resolved directory
  2978                                  	; Save SI (rest of path)
  2979 000014FC 56                      	push	si
  2980                                  
  2981                                  	; Read the resolved directory
  2982 000014FD E86100                  	call	read_resolved_dir
  2983 00001500 722F                    	jc	.rp_err_pop
  2984                                  
  2985                                  	; Search for the component with directory attribute
  2986 00001502 BE0040                  	mov	si, dir_buffer
  2987 00001505 8B0E[0B3E]              	mov	cx, [resolved_dir_entries]
  2988                                  .rp_search:
  2989 00001509 8A04                    	mov	al, [si]
  2990 0000150B 3C00                    	cmp	al, 0
  2991 0000150D 741E                    	je	.rp_not_found_pop
  2992 0000150F 3CE5                    	cmp	al, 0xE5
  2993 00001511 7414                    	je	.rp_search_next
  2994 00001513 F6440B10                	test	byte [si+11], 0x10	; Directory?
  2995 00001517 740E                    	jz	.rp_search_next
  2996 00001519 51                      	push	cx
  2997 0000151A 56                      	push	si
  2998 0000151B BF[F03C]                	mov	di, exec_fname
  2999 0000151E B90B00                  	mov	cx, 11
  3000 00001521 F3A6                    	repe	cmpsb
  3001 00001523 5E                      	pop	si
  3002 00001524 59                      	pop	cx
  3003 00001525 740E                    	je	.rp_found_dir
  3004                                  .rp_search_next:
  3005 00001527 83C620                  	add	si, 32
  3006 0000152A 49                      	dec	cx
  3007 0000152B 75DC                    	jnz	.rp_search
  3008                                  
  3009                                  .rp_not_found_pop:
  3010 0000152D 5E                      	pop	si
  3011 0000152E F9                      	stc
  3012 0000152F EB2C                    	jmp	.rp_done
  3013                                  
  3014                                  .rp_err_pop:
  3015 00001531 5E                      	pop	si
  3016 00001532 F9                      	stc
  3017 00001533 EB28                    	jmp	.rp_done
  3018                                  
  3019                                  .rp_found_dir:
  3020                                  	; Update resolved directory to this subdirectory
  3021 00001535 8B441A                  	mov	ax, [si+26]
  3022 00001538 A3[093E]                	mov	[resolved_dir_cluster], ax
  3023 0000153B 83F800                  	cmp	ax, 0
  3024 0000153E 7508                    	jne	.rp_is_sub
  3025 00001540 C706[0B3E]7000          	mov	word [resolved_dir_entries], MAX_DIR_ENTRIES
  3026 00001546 EB06                    	jmp	.rp_restored
  3027                                  .rp_is_sub:
  3028 00001548 C706[0B3E]2000          	mov	word [resolved_dir_entries], SECS_PER_CLUST * 512 / 32
  3029                                  .rp_restored:
  3030 0000154E 5E                      	pop	si			; Restore rest of path
  3031 0000154F E965FF                  	jmp	.rp_parse_component
  3032                                  
  3033                                  .rp_no_file:
  3034                                  	; Path was just a directory path with no filename
  3035                                  	; Put empty filename in exec_fname
  3036 00001552 BF[F03C]                	mov	di, exec_fname
  3037 00001555 B90B00                  	mov	cx, 11
  3038 00001558 B020                    	mov	al, ' '
  3039 0000155A F3AA                    	rep	stosb
  3040 0000155C F8                      	clc
  3041                                  
  3042                                  .rp_done:
  3043 0000155D 5A                      	pop	dx
  3044 0000155E 59                      	pop	cx
  3045 0000155F 5B                      	pop	bx
  3046 00001560 C3                      	ret
  3047                                  
  3048                                  ; ============================================================================
  3049                                  ; read_resolved_dir — Read directory at resolved_dir_cluster into dir_buffer
  3050                                  ; ============================================================================
  3051                                  read_resolved_dir:
  3052 00001561 B80008                  	mov	ax, SHELL_SEG
  3053 00001564 8EC0                    	mov	es, ax
  3054 00001566 BB0040                  	mov	bx, dir_buffer
  3055 00001569 833E[093E]00            	cmp	word [resolved_dir_cluster], 0
  3056 0000156E 7511                    	jne	.rrd_subdir
  3057 00001570 B402                    	mov	ah, 0x02
  3058 00001572 B007                    	mov	al, ROOT_DIR_SECS
  3059 00001574 B500                    	mov	ch, 0
  3060 00001576 B106                    	mov	cl, ROOT_DIR_SEC + 1
  3061 00001578 B600                    	mov	dh, 0
  3062 0000157A 8A16[0D3E]              	mov	dl, [resolved_drive]
  3063 0000157E CD13                    	int	0x13
  3064 00001580 C3                      	ret
  3065                                  .rrd_subdir:
  3066 00001581 A1[093E]                	mov	ax, [resolved_dir_cluster]
  3067 00001584 E84BF8                  	call	cluster_to_chs
  3068 00001587 B80008                  	mov	ax, SHELL_SEG
  3069 0000158A 8EC0                    	mov	es, ax
  3070 0000158C BB0040                  	mov	bx, dir_buffer
  3071 0000158F B402                    	mov	ah, 0x02
  3072 00001591 B002                    	mov	al, SECS_PER_CLUST
  3073 00001593 8A16[0D3E]              	mov	dl, [resolved_drive]
  3074 00001597 CD13                    	int	0x13
  3075 00001599 C3                      	ret
  3076                                  
  3077                                  ; ============================================================================
  3078                                  ; write_resolved_dir — Write dir_buffer to resolved_dir_cluster
  3079                                  ; ============================================================================
  3080                                  write_resolved_dir:
  3081 0000159A B80008                  	mov	ax, SHELL_SEG
  3082 0000159D 8EC0                    	mov	es, ax
  3083 0000159F BB0040                  	mov	bx, dir_buffer
  3084 000015A2 833E[093E]00            	cmp	word [resolved_dir_cluster], 0
  3085 000015A7 7511                    	jne	.wrd_subdir
  3086 000015A9 B403                    	mov	ah, 0x03
  3087 000015AB B007                    	mov	al, ROOT_DIR_SECS
  3088 000015AD B500                    	mov	ch, 0
  3089 000015AF B106                    	mov	cl, ROOT_DIR_SEC + 1
  3090 000015B1 B600                    	mov	dh, 0
  3091 000015B3 8A16[0D3E]              	mov	dl, [resolved_drive]
  3092 000015B7 CD13                    	int	0x13
  3093 000015B9 C3                      	ret
  3094                                  .wrd_subdir:
  3095 000015BA A1[093E]                	mov	ax, [resolved_dir_cluster]
  3096 000015BD E812F8                  	call	cluster_to_chs
  3097 000015C0 B80008                  	mov	ax, SHELL_SEG
  3098 000015C3 8EC0                    	mov	es, ax
  3099 000015C5 BB0040                  	mov	bx, dir_buffer
  3100 000015C8 B403                    	mov	ah, 0x03
  3101 000015CA B002                    	mov	al, SECS_PER_CLUST
  3102 000015CC 8A16[0D3E]              	mov	dl, [resolved_drive]
  3103 000015D0 CD13                    	int	0x13
  3104 000015D2 C3                      	ret
  3105                                  
  3106                                  ; ============================================================================
  3107                                  ; run_batch — Load and execute a batch file
  3108                                  ; ============================================================================
  3109                                  ; Input: SI = pointer to filename string (e.g., "AUTOEXEC.BAT")
  3110                                  ; Silently does nothing if file not found.
  3111                                  ; Sets batch_active=1 and batch_ptr, then returns to cmd_loop which
  3112                                  ; will read lines from the batch buffer instead of the keyboard.
  3113                                  ;
  3114                                  run_batch:
  3115                                  	; Resolve the filename
  3116 000015D3 E86EFE                  	call	resolve_path
  3117 000015D6 722A                    	jc	.rb_not_found
  3118                                  
  3119                                  	; Read resolved directory
  3120 000015D8 E886FF                  	call	read_resolved_dir
  3121 000015DB 7225                    	jc	.rb_not_found
  3122                                  
  3123                                  	; Search for the file
  3124 000015DD BE0040                  	mov	si, dir_buffer
  3125 000015E0 8B0E[0B3E]              	mov	cx, [resolved_dir_entries]
  3126                                  .rb_search:
  3127 000015E4 8A04                    	mov	al, [si]
  3128 000015E6 3C00                    	cmp	al, 0
  3129 000015E8 7418                    	je	.rb_not_found
  3130 000015EA 3CE5                    	cmp	al, 0xE5
  3131 000015EC 740E                    	je	.rb_search_next
  3132 000015EE 51                      	push	cx
  3133 000015EF 56                      	push	si
  3134 000015F0 BF[F03C]                	mov	di, exec_fname
  3135 000015F3 B90B00                  	mov	cx, 11
  3136 000015F6 F3A6                    	repe	cmpsb
  3137 000015F8 5E                      	pop	si
  3138 000015F9 59                      	pop	cx
  3139 000015FA 7407                    	je	.rb_found
  3140                                  .rb_search_next:
  3141 000015FC 83C620                  	add	si, 32
  3142 000015FF 49                      	dec	cx
  3143 00001600 75E2                    	jnz	.rb_search
  3144                                  
  3145                                  .rb_not_found:
  3146 00001602 C3                      	ret
  3147                                  
  3148                                  .rb_found:
  3149                                  	; Get cluster and size
  3150 00001603 8B441A                  	mov	ax, [si+26]
  3151 00001606 A3[163E]                	mov	[exec_cluster], ax
  3152 00001609 8B441C                  	mov	ax, [si+28]
  3153 0000160C A3[183E]                	mov	[exec_size], ax
  3154 0000160F 8B441E                  	mov	ax, [si+30]
  3155 00001612 A3[1A3E]                	mov	[exec_size+2], ax
  3156                                  
  3157                                  	; Load FAT
  3158 00001615 E8E5FD                  	call	read_fat
  3159 00001618 72E8                    	jc	.rb_not_found
  3160                                  
  3161                                  	; Load file data into batch_buffer
  3162 0000161A BB0052                  	mov	bx, batch_buffer
  3163 0000161D A1[163E]                	mov	ax, [exec_cluster]
  3164                                  
  3165                                  .rb_load_cluster:
  3166 00001620 50                      	push	ax
  3167 00001621 E8AEF7                  	call	cluster_to_chs
  3168 00001624 B80008                  	mov	ax, SHELL_SEG
  3169 00001627 8EC0                    	mov	es, ax
  3170 00001629 B402                    	mov	ah, 0x02
  3171 0000162B B002                    	mov	al, SECS_PER_CLUST
  3172 0000162D 8A16[0D3E]              	mov	dl, [resolved_drive]
  3173 00001631 CD13                    	int	0x13
  3174 00001633 58                      	pop	ax
  3175 00001634 72CC                    	jc	.rb_not_found
  3176                                  
  3177 00001636 81C30004                	add	bx, SECS_PER_CLUST * 512
  3178 0000163A E8BE06                  	call	fat12_next_cluster
  3179 0000163D 3DF80F                  	cmp	ax, 0xFF8
  3180 00001640 72DE                    	jb	.rb_load_cluster
  3181                                  
  3182                                  	; Set up batch execution
  3183 00001642 B80052                  	mov	ax, batch_buffer
  3184 00001645 0306[183E]              	add	ax, [exec_size]
  3185 00001649 A3[113E]                	mov	[batch_end], ax
  3186 0000164C C706[0F3E]0052          	mov	word [batch_ptr], batch_buffer
  3187 00001652 C606[0E3E]01            	mov	byte [batch_active], 1
  3188 00001657 C606[133E]01            	mov	byte [batch_echo], 1	; Echo on by default
  3189 0000165C C3                      	ret
  3190                                  
  3191                                  ; ============================================================================
  3192                                  ; batch_next_line — Get next line from batch buffer into cmd_buffer
  3193                                  ; ============================================================================
  3194                                  ; Called from cmd_loop when batch_active is set.
  3195                                  ; Copies one line, handles @, REM, PAUSE, then falls through to command dispatch.
  3196                                  ;
  3197                                  batch_next_line:
  3198 0000165D 8B36[0F3E]              	mov	si, [batch_ptr]
  3199 00001661 BF[9F3C]                	mov	di, cmd_buffer
  3200 00001664 B95000                  	mov	cx, MAX_CMD_LEN
  3201                                  
  3202                                  .bnl_copy:
  3203 00001667 3B36[113E]              	cmp	si, [batch_end]
  3204 0000166B 7203E9DD00              	jae	.bnl_eof
  3205 00001670 AC                      	lodsb
  3206 00001671 3C0A                    	cmp	al, 0x0A		; LF = end of line
  3207 00001673 740F                    	je	.bnl_line_done
  3208 00001675 3C0D                    	cmp	al, 0x0D		; CR = skip
  3209 00001677 74EE                    	je	.bnl_copy
  3210 00001679 3C1A                    	cmp	al, 0x1A		; Ctrl-Z = EOF
  3211 0000167B 7503E9CD00              	je	.bnl_eof
  3212 00001680 AA                      	stosb
  3213 00001681 49                      	dec	cx
  3214 00001682 75E3                    	jnz	.bnl_copy
  3215                                  
  3216                                  .bnl_line_done:
  3217 00001684 C60500                  	mov	byte [di], 0
  3218 00001687 8936[0F3E]              	mov	[batch_ptr], si
  3219                                  
  3220                                  	; Skip empty lines
  3221 0000168B BE[9F3C]                	mov	si, cmd_buffer
  3222 0000168E E89322                  	call	skip_spaces
  3223 00001691 803C00                  	cmp	byte [si], 0
  3224 00001694 7503E932EA              	je	cmd_loop		; Empty line — get next
  3225                                  
  3226                                  	; Check for @ prefix — suppress echo for this line
  3227 00001699 C606FF5100              	mov	byte [batch_buffer - 1], 0  ; temp: this_line_silent flag (reuse byte before buffer)
  3228 0000169E 803C40                  	cmp	byte [si], '@'
  3229 000016A1 750F                    	jne	.bnl_check_echo_state
  3230 000016A3 C606FF5101              	mov	byte [batch_buffer - 1], 1  ; This line is silent
  3231                                  	; Strip @ from buffer
  3232 000016A8 46                      	inc	si
  3233 000016A9 BF[9F3C]                	mov	di, cmd_buffer
  3234                                  .bnl_shift:
  3235 000016AC AC                      	lodsb
  3236 000016AD AA                      	stosb
  3237 000016AE 08C0                    	or	al, al
  3238 000016B0 75FA                    	jnz	.bnl_shift
  3239                                  
  3240                                  .bnl_check_echo_state:
  3241                                  	; Check for ECHO OFF / ECHO ON
  3242 000016B2 BE[9F3C]                	mov	si, cmd_buffer
  3243 000016B5 E86C22                  	call	skip_spaces
  3244 000016B8 56                      	push	si
  3245 000016B9 BF[713C]                	mov	di, cmd_echo
  3246 000016BC E86E22                  	call	str_compare_cmd
  3247 000016BF 752E                    	jne	.bnl_not_echo_cmd
  3248                                  	; It's an ECHO command — check for OFF/ON
  3249 000016C1 E86022                  	call	skip_spaces
  3250 000016C4 56                      	push	si
  3251 000016C5 BF[3418]                	mov	di, str_off
  3252 000016C8 E86222                  	call	str_compare_cmd
  3253 000016CB 740E                    	je	.bnl_echo_off
  3254 000016CD 5E                      	pop	si
  3255 000016CE 56                      	push	si
  3256 000016CF BF[3818]                	mov	di, str_on
  3257 000016D2 E85822                  	call	str_compare_cmd
  3258 000016D5 740E                    	je	.bnl_echo_on
  3259 000016D7 5E                      	pop	si
  3260 000016D8 5E                      	pop	si			; Discard saved SI from echo check
  3261 000016D9 EB15                    	jmp	.bnl_do_echo_line	; Regular ECHO with text
  3262                                  
  3263                                  .bnl_echo_off:
  3264 000016DB 5E                      	pop	si
  3265 000016DC 5E                      	pop	si
  3266 000016DD C606[133E]00            	mov	byte [batch_echo], 0
  3267 000016E2 E9E6E9                  	jmp	cmd_loop
  3268                                  .bnl_echo_on:
  3269 000016E5 5E                      	pop	si
  3270 000016E6 5E                      	pop	si
  3271 000016E7 C606[133E]01            	mov	byte [batch_echo], 1
  3272 000016EC E9DCE9                  	jmp	cmd_loop
  3273                                  
  3274                                  .bnl_not_echo_cmd:
  3275 000016EF 5E                      	pop	si
  3276                                  
  3277                                  .bnl_do_echo_line:
  3278                                  	; Echo the line if echo is on AND line is not @-prefixed
  3279 000016F0 803EFF5101              	cmp	byte [batch_buffer - 1], 1
  3280 000016F5 741B                    	je	.bnl_skip_echo		; @ prefix — don't echo
  3281 000016F7 803E[133E]00            	cmp	byte [batch_echo], 0
  3282 000016FC 7414                    	je	.bnl_skip_echo		; Echo off — don't echo
  3283                                  	; Echo the line
  3284 000016FE 56                      	push	si
  3285 000016FF BE[9F3C]                	mov	si, cmd_buffer
  3286 00001702 E8BD21                  	call	print_string
  3287 00001705 B00D                    	mov	al, 0x0D
  3288 00001707 B40E                    	mov	ah, 0x0E
  3289 00001709 CD10                    	int	0x10
  3290 0000170B B00A                    	mov	al, 0x0A
  3291 0000170D B40E                    	mov	ah, 0x0E
  3292 0000170F CD10                    	int	0x10
  3293 00001711 5E                      	pop	si
  3294                                  .bnl_skip_echo:
  3295                                  
  3296                                  	; Check for REM (comment) — skip
  3297 00001712 BE[9F3C]                	mov	si, cmd_buffer
  3298 00001715 E80C22                  	call	skip_spaces
  3299 00001718 56                      	push	si
  3300 00001719 BF[2A18]                	mov	di, cmd_rem
  3301 0000171C E80E22                  	call	str_compare_cmd
  3302 0000171F 740E                    	je	.bnl_skip_rem
  3303                                  
  3304                                  	; Check for PAUSE
  3305 00001721 5E                      	pop	si
  3306 00001722 56                      	push	si
  3307 00001723 BF[2E18]                	mov	di, cmd_pause
  3308 00001726 E80422                  	call	str_compare_cmd
  3309 00001729 7408                    	je	.bnl_do_pause
  3310                                  
  3311 0000172B 5E                      	pop	si
  3312                                  	; Fall through to normal command dispatch
  3313 0000172C E9F9E9                  	jmp	cmd_dispatch
  3314                                  
  3315                                  .bnl_skip_rem:
  3316 0000172F 5E                      	pop	si
  3317 00001730 E998E9                  	jmp	cmd_loop
  3318                                  
  3319                                  .bnl_do_pause:
  3320 00001733 5E                      	pop	si
  3321 00001734 BE[D23B]                	mov	si, msg_pause
  3322 00001737 E88821                  	call	print_string
  3323 0000173A B400                    	mov	ah, 0x00
  3324 0000173C CD16                    	int	0x16
  3325 0000173E B00D                    	mov	al, 0x0D
  3326 00001740 B40E                    	mov	ah, 0x0E
  3327 00001742 CD10                    	int	0x10
  3328 00001744 B00A                    	mov	al, 0x0A
  3329 00001746 B40E                    	mov	ah, 0x0E
  3330 00001748 CD10                    	int	0x10
  3331 0000174A E97EE9                  	jmp	cmd_loop
  3332                                  
  3333                                  .bnl_eof:
  3334 0000174D C606[0E3E]00            	mov	byte [batch_active], 0
  3335 00001752 E976E9                  	jmp	cmd_loop
  3336                                  
  3337                                  ; ============================================================================
  3338                                  ; print_2digit — Print AX as 2-digit number with leading zero
  3339                                  ; ============================================================================
  3340                                  print_2digit:
  3341 00001755 50                      	push	ax
  3342 00001756 53                      	push	bx
  3343 00001757 30E4                    	xor	ah, ah
  3344 00001759 B30A                    	mov	bl, 10
  3345 0000175B F6F3                    	div	bl			; AL = tens, AH = ones
  3346 0000175D 50                      	push	ax
  3347 0000175E 0430                    	add	al, '0'
  3348 00001760 B40E                    	mov	ah, 0x0E
  3349 00001762 CD10                    	int	0x10
  3350 00001764 58                      	pop	ax
  3351 00001765 88E0                    	mov	al, ah
  3352 00001767 0430                    	add	al, '0'
  3353 00001769 B40E                    	mov	ah, 0x0E
  3354 0000176B CD10                    	int	0x10
  3355 0000176D 5B                      	pop	bx
  3356 0000176E 58                      	pop	ax
  3357 0000176F C3                      	ret
  3358                                  
  3359                                  ; ============================================================================
  3360                                  ; print_2digit_space — Print AX as 2-digit with leading space (not zero)
  3361                                  ; ============================================================================
  3362                                  print_2digit_space:
  3363 00001770 50                      	push	ax
  3364 00001771 53                      	push	bx
  3365 00001772 30E4                    	xor	ah, ah
  3366 00001774 B30A                    	mov	bl, 10
  3367 00001776 F6F3                    	div	bl			; AL = tens, AH = ones
  3368 00001778 50                      	push	ax
  3369 00001779 3C00                    	cmp	al, 0
  3370 0000177B 7504                    	jne	.p2ds_tens
  3371 0000177D B020                    	mov	al, ' '			; Space instead of '0'
  3372 0000177F EB02                    	jmp	.p2ds_print_tens
  3373                                  .p2ds_tens:
  3374 00001781 0430                    	add	al, '0'
  3375                                  .p2ds_print_tens:
  3376 00001783 B40E                    	mov	ah, 0x0E
  3377 00001785 CD10                    	int	0x10
  3378 00001787 58                      	pop	ax
  3379 00001788 88E0                    	mov	al, ah
  3380 0000178A 0430                    	add	al, '0'
  3381 0000178C B40E                    	mov	ah, 0x0E
  3382 0000178E CD10                    	int	0x10
  3383 00001790 5B                      	pop	bx
  3384 00001791 58                      	pop	ax
  3385 00001792 C3                      	ret
  3386                                  
  3387                                  ; ============================================================================
  3388                                  ; print_size_padded — Print DX:AX as right-aligned number in 10 chars
  3389                                  ; ============================================================================
  3390                                  print_size_padded:
  3391 00001793 50                      	push	ax
  3392 00001794 53                      	push	bx
  3393 00001795 51                      	push	cx
  3394 00001796 52                      	push	dx
  3395                                  
  3396                                  	; Count digits first
  3397 00001797 50                      	push	ax
  3398 00001798 52                      	push	dx
  3399 00001799 B90000                  	mov	cx, 0
  3400 0000179C BB0A00                  	mov	bx, 10
  3401                                  .psp_count:
  3402 0000179F 50                      	push	ax
  3403 000017A0 89D0                    	mov	ax, dx
  3404 000017A2 31D2                    	xor	dx, dx
  3405 000017A4 F7F3                    	div	bx
  3406 000017A6 A3[DE17]                	mov	word [.psp_tmp], ax
  3407 000017A9 58                      	pop	ax
  3408 000017AA F7F3                    	div	bx
  3409 000017AC 52                      	push	dx
  3410 000017AD 8B16[DE17]              	mov	dx, [.psp_tmp]
  3411 000017B1 41                      	inc	cx
  3412 000017B2 09C0                    	or	ax, ax
  3413 000017B4 75E9                    	jnz	.psp_count
  3414 000017B6 09D2                    	or	dx, dx
  3415 000017B8 75E5                    	jnz	.psp_count
  3416                                  
  3417                                  	; Print leading spaces (10 - digit_count)
  3418 000017BA 89CB                    	mov	bx, cx		; Save digit count
  3419 000017BC B80A00                  	mov	ax, 10
  3420 000017BF 29C8                    	sub	ax, cx
  3421 000017C1 89C1                    	mov	cx, ax
  3422 000017C3 E309                    	jcxz	.psp_no_pad
  3423                                  .psp_pad:
  3424 000017C5 B020                    	mov	al, ' '
  3425 000017C7 B40E                    	mov	ah, 0x0E
  3426 000017C9 CD10                    	int	0x10
  3427 000017CB 49                      	dec	cx
  3428 000017CC 75F7                    	jnz	.psp_pad
  3429                                  .psp_no_pad:
  3430                                  	; Discard counted digits from stack
  3431 000017CE 89D9                    	mov	cx, bx
  3432                                  .psp_discard:
  3433 000017D0 58                      	pop	ax
  3434 000017D1 49                      	dec	cx
  3435 000017D2 75FC                    	jnz	.psp_discard
  3436 000017D4 5A                      	pop	dx
  3437 000017D5 58                      	pop	ax
  3438                                  
  3439                                  	; Now print the actual number
  3440 000017D6 E88921                  	call	print_decimal_32
  3441                                  
  3442 000017D9 5A                      	pop	dx
  3443 000017DA 59                      	pop	cx
  3444 000017DB 5B                      	pop	bx
  3445 000017DC 58                      	pop	ax
  3446 000017DD C3                      	ret
  3447 000017DE 0000                    .psp_tmp	dw	0
  3448                                  
  3449                                  ; ============================================================================
  3450                                  ; print_rpad_dec — Print DX:AX right-aligned in CX character width
  3451                                  ; ============================================================================
  3452                                  print_rpad_dec:
  3453 000017E0 50                      	push	ax
  3454 000017E1 53                      	push	bx
  3455 000017E2 51                      	push	cx
  3456 000017E3 52                      	push	dx
  3457                                  	; Use print_size_padded logic but with variable width
  3458                                  	; For simplicity, just print spaces then the number
  3459                                  	; Count digits
  3460 000017E4 50                      	push	ax
  3461 000017E5 52                      	push	dx
  3462 000017E6 51                      	push	cx			; Save width
  3463 000017E7 B90000                  	mov	cx, 0
  3464 000017EA BB0A00                  	mov	bx, 10
  3465                                  .prpd_count:
  3466 000017ED 50                      	push	ax
  3467 000017EE 89D0                    	mov	ax, dx
  3468 000017F0 31D2                    	xor	dx, dx
  3469 000017F2 F7F3                    	div	bx
  3470 000017F4 A3[2818]                	mov	[.prpd_tmp], ax
  3471 000017F7 58                      	pop	ax
  3472 000017F8 F7F3                    	div	bx
  3473 000017FA 52                      	push	dx
  3474 000017FB 8B16[2818]              	mov	dx, [.prpd_tmp]
  3475 000017FF 41                      	inc	cx
  3476 00001800 09C0                    	or	ax, ax
  3477 00001802 75E9                    	jnz	.prpd_count
  3478 00001804 09D2                    	or	dx, dx
  3479 00001806 75E5                    	jnz	.prpd_count
  3480 00001808 89CB                    	mov	bx, cx			; BX = digit count
  3481                                  	; Discard digits from stack
  3482                                  .prpd_pop:
  3483 0000180A 58                      	pop	ax
  3484 0000180B 49                      	dec	cx
  3485 0000180C 75FC                    	jnz	.prpd_pop
  3486 0000180E 59                      	pop	cx			; Restore width
  3487 0000180F 5A                      	pop	dx
  3488 00001810 58                      	pop	ax
  3489                                  	; Print (width - digits) spaces
  3490 00001811 29D9                    	sub	cx, bx
  3491 00001813 7E0B                    	jle	.prpd_no_pad
  3492                                  .prpd_pad:
  3493 00001815 50                      	push	ax
  3494 00001816 B020                    	mov	al, ' '
  3495 00001818 B40E                    	mov	ah, 0x0E
  3496 0000181A CD10                    	int	0x10
  3497 0000181C 58                      	pop	ax
  3498 0000181D 49                      	dec	cx
  3499 0000181E 75F5                    	jnz	.prpd_pad
  3500                                  .prpd_no_pad:
  3501 00001820 E83F21                  	call	print_decimal_32
  3502 00001823 5A                      	pop	dx
  3503 00001824 59                      	pop	cx
  3504 00001825 5B                      	pop	bx
  3505 00001826 58                      	pop	ax
  3506 00001827 C3                      	ret
  3507 00001828 0000                    .prpd_tmp	dw	0
  3508                                  
  3509 0000182A 52454D00                cmd_rem		db	'REM', 0
  3510 0000182E 504155534500            cmd_pause	db	'PAUSE', 0
  3511 00001834 4F464600                str_off		db	'OFF', 0
  3512 00001838 4F4E00                  str_on		db	'ON', 0
  3513                                  
  3514                                  ; ============================================================================
  3515                                  ; parse_83_filename — Parse filename at DS:SI into 8.3 format at ES:DI
  3516                                  ; ============================================================================
  3517                                  ; Input:  SI = pointer to filename string (null/space terminated)
  3518                                  ;         DI = pointer to 11-byte output buffer
  3519                                  ; Output: DI buffer filled with 8.3 name (space padded)
  3520                                  ;         SI advanced past the filename
  3521                                  ;
  3522                                  parse_83_filename:
  3523 0000183B 50                      	push	ax
  3524 0000183C 51                      	push	cx
  3525 0000183D 57                      	push	di
  3526                                  	; Fill with spaces
  3527 0000183E 57                      	push	di
  3528 0000183F B90B00                  	mov	cx, 11
  3529 00001842 B020                    	mov	al, ' '
  3530 00001844 F3AA                    	rep	stosb
  3531 00001846 5F                      	pop	di
  3532                                  
  3533                                  	; Special case: "." and ".." are stored as-is, not as name.ext
  3534 00001847 803C2E                  	cmp	byte [si], '.'
  3535 0000184A 7541                    	jne	.p83_normal
  3536 0000184C 807C012E                	cmp	byte [si+1], '.'
  3537 00001850 741B                    	je	.p83_dotdot
  3538                                  	; Check if "." is alone (followed by \, space, or null)
  3539 00001852 807C015C                	cmp	byte [si+1], '\'
  3540 00001856 740E                    	je	.p83_single_dot
  3541 00001858 807C0120                	cmp	byte [si+1], ' '
  3542 0000185C 7408                    	je	.p83_single_dot
  3543 0000185E 807C0100                	cmp	byte [si+1], 0
  3544 00001862 7402                    	je	.p83_single_dot
  3545 00001864 EB27                    	jmp	.p83_normal		; "." followed by something else = has extension
  3546                                  .p83_single_dot:
  3547 00001866 C6052E                  	mov	byte [di], '.'
  3548 00001869 46                      	inc	si
  3549 0000186A E98300                  	jmp	.p83_done
  3550                                  .p83_dotdot:
  3551                                  	; Check ".." is alone
  3552 0000186D 807C025C                	cmp	byte [si+2], '\'
  3553 00001871 740E                    	je	.p83_is_dotdot
  3554 00001873 807C0220                	cmp	byte [si+2], ' '
  3555 00001877 7408                    	je	.p83_is_dotdot
  3556 00001879 807C0200                	cmp	byte [si+2], 0
  3557 0000187D 7402                    	je	.p83_is_dotdot
  3558 0000187F EB0C                    	jmp	.p83_normal
  3559                                  .p83_is_dotdot:
  3560 00001881 C6052E                  	mov	byte [di], '.'
  3561 00001884 C645012E                	mov	byte [di+1], '.'
  3562 00001888 83C602                  	add	si, 2
  3563 0000188B EB63                    	jmp	.p83_done
  3564                                  
  3565                                  .p83_normal:
  3566                                  	; Copy name part (up to 8 chars)
  3567 0000188D B90800                  	mov	cx, 8
  3568                                  .p83_name:
  3569 00001890 8A04                    	mov	al, [si]
  3570 00001892 3C00                    	cmp	al, 0
  3571 00001894 745A                    	je	.p83_done
  3572 00001896 3C20                    	cmp	al, ' '
  3573 00001898 7456                    	je	.p83_done
  3574 0000189A 3C5C                    	cmp	al, '\'
  3575 0000189C 7452                    	je	.p83_done
  3576 0000189E 3C2E                    	cmp	al, '.'
  3577 000018A0 7426                    	je	.p83_dot
  3578 000018A2 3C61                    	cmp	al, 'a'
  3579 000018A4 7206                    	jb	.p83_no_upper
  3580 000018A6 3C7A                    	cmp	al, 'z'
  3581 000018A8 7702                    	ja	.p83_no_upper
  3582 000018AA 2C20                    	sub	al, 0x20
  3583                                  .p83_no_upper:
  3584 000018AC 8805                    	mov	[di], al
  3585 000018AE 46                      	inc	si
  3586 000018AF 47                      	inc	di
  3587 000018B0 49                      	dec	cx
  3588 000018B1 75DD                    	jnz	.p83_name
  3589                                  	; Skip to dot or end
  3590                                  .p83_skip:
  3591 000018B3 8A04                    	mov	al, [si]
  3592 000018B5 3C00                    	cmp	al, 0
  3593 000018B7 7437                    	je	.p83_done
  3594 000018B9 3C20                    	cmp	al, ' '
  3595 000018BB 7433                    	je	.p83_done
  3596 000018BD 3C5C                    	cmp	al, '\'
  3597 000018BF 742F                    	je	.p83_done
  3598 000018C1 3C2E                    	cmp	al, '.'
  3599 000018C3 7403                    	je	.p83_dot
  3600 000018C5 46                      	inc	si
  3601 000018C6 EBEB                    	jmp	.p83_skip
  3602                                  .p83_dot:
  3603 000018C8 46                      	inc	si
  3604 000018C9 5F                      	pop	di
  3605 000018CA 57                      	push	di
  3606 000018CB 83C708                  	add	di, 8			; Extension at offset 8
  3607 000018CE B90300                  	mov	cx, 3
  3608                                  .p83_ext:
  3609 000018D1 8A04                    	mov	al, [si]
  3610 000018D3 3C00                    	cmp	al, 0
  3611 000018D5 7419                    	je	.p83_done
  3612 000018D7 3C20                    	cmp	al, ' '
  3613 000018D9 7415                    	je	.p83_done
  3614 000018DB 3C5C                    	cmp	al, '\'
  3615 000018DD 7411                    	je	.p83_done
  3616 000018DF 3C61                    	cmp	al, 'a'
  3617 000018E1 7206                    	jb	.p83_no_upper2
  3618 000018E3 3C7A                    	cmp	al, 'z'
  3619 000018E5 7702                    	ja	.p83_no_upper2
  3620 000018E7 2C20                    	sub	al, 0x20
  3621                                  .p83_no_upper2:
  3622 000018E9 8805                    	mov	[di], al
  3623 000018EB 46                      	inc	si
  3624 000018EC 47                      	inc	di
  3625 000018ED 49                      	dec	cx
  3626 000018EE 75E1                    	jnz	.p83_ext
  3627                                  .p83_done:
  3628 000018F0 5F                      	pop	di
  3629 000018F1 59                      	pop	cx
  3630 000018F2 58                      	pop	ax
  3631 000018F3 C3                      	ret
  3632                                  
  3633                                  ; ============================================================================
  3634                                  ; parse_wildcard — parse filename with * and ? into 11-byte pattern
  3635                                  ; Input: SI = user string, DI = 11-byte buffer
  3636                                  ; '*' fills remaining name/ext positions with '?'
  3637                                  ; Output: SI advanced past parsed name
  3638                                  ;         Sets wild_active=1 if any wildcards found, else 0
  3639                                  ; ============================================================================
  3640                                  parse_wildcard:
  3641 000018F4 50                      	push	ax
  3642 000018F5 51                      	push	cx
  3643 000018F6 57                      	push	di
  3644 000018F7 C606[073D]00            	mov	byte [wild_active], 0
  3645                                  	; Fill with spaces
  3646 000018FC 57                      	push	di
  3647 000018FD B90B00                  	mov	cx, 11
  3648 00001900 B020                    	mov	al, ' '
  3649 00001902 F3AA                    	rep	stosb
  3650 00001904 5F                      	pop	di
  3651                                  
  3652                                  	; Name part (up to 8 chars)
  3653 00001905 B90800                  	mov	cx, 8
  3654                                  .pw_name:
  3655 00001908 8A04                    	mov	al, [si]
  3656 0000190A 3C00                    	cmp	al, 0
  3657 0000190C 7503E9AB00              	je	.pw_done
  3658 00001911 3C20                    	cmp	al, ' '
  3659 00001913 7503E9A400              	je	.pw_done
  3660 00001918 3C5C                    	cmp	al, '\'
  3661 0000191A 7503E99D00              	je	.pw_done
  3662 0000191F 3C2E                    	cmp	al, '.'
  3663 00001921 7448                    	je	.pw_dot
  3664 00001923 3C2A                    	cmp	al, '*'
  3665 00001925 741C                    	je	.pw_star_name
  3666 00001927 3C3F                    	cmp	al, '?'
  3667 00001929 7505                    	jne	.pw_name_char
  3668 0000192B C606[073D]01            	mov	byte [wild_active], 1
  3669                                  .pw_name_char:
  3670 00001930 3C61                    	cmp	al, 'a'
  3671 00001932 7206                    	jb	.pw_name_store
  3672 00001934 3C7A                    	cmp	al, 'z'
  3673 00001936 7702                    	ja	.pw_name_store
  3674 00001938 2C20                    	sub	al, 0x20
  3675                                  .pw_name_store:
  3676 0000193A 8805                    	mov	[di], al
  3677 0000193C 46                      	inc	si
  3678 0000193D 47                      	inc	di
  3679 0000193E 49                      	dec	cx
  3680 0000193F 75C7                    	jnz	.pw_name
  3681 00001941 EB13                    	jmp	.pw_skip_to_dot
  3682                                  
  3683                                  .pw_star_name:
  3684 00001943 C606[073D]01            	mov	byte [wild_active], 1
  3685                                  	; Fill rest of name with '?'
  3686 00001948 B03F                    	mov	al, '?'
  3687                                  .pw_fill_name:
  3688 0000194A 83F900                  	cmp	cx, 0
  3689 0000194D 7406                    	je	.pw_star_name_done
  3690 0000194F 8805                    	mov	[di], al
  3691 00001951 47                      	inc	di
  3692 00001952 49                      	dec	cx
  3693 00001953 EBF5                    	jmp	.pw_fill_name
  3694                                  .pw_star_name_done:
  3695 00001955 46                      	inc	si		; skip the '*'
  3696                                  	; Skip to dot or end
  3697                                  .pw_skip_to_dot:
  3698 00001956 8A04                    	mov	al, [si]
  3699 00001958 3C2E                    	cmp	al, '.'
  3700 0000195A 740F                    	je	.pw_dot
  3701 0000195C 3C00                    	cmp	al, 0
  3702 0000195E 7442                    	je	.pw_star_ext	; No extension after * means match all extensions
  3703 00001960 3C20                    	cmp	al, ' '
  3704 00001962 743E                    	je	.pw_star_ext
  3705 00001964 3C5C                    	cmp	al, '\'
  3706 00001966 743A                    	je	.pw_star_ext
  3707 00001968 46                      	inc	si
  3708 00001969 EBEB                    	jmp	.pw_skip_to_dot
  3709                                  
  3710                                  .pw_dot:
  3711 0000196B 46                      	inc	si		; skip '.'
  3712 0000196C 5F                      	pop	di
  3713 0000196D 57                      	push	di
  3714 0000196E 83C708                  	add	di, 8		; extension part
  3715 00001971 B90300                  	mov	cx, 3
  3716                                  .pw_ext:
  3717 00001974 8A04                    	mov	al, [si]
  3718 00001976 3C00                    	cmp	al, 0
  3719 00001978 7442                    	je	.pw_done
  3720 0000197A 3C20                    	cmp	al, ' '
  3721 0000197C 743E                    	je	.pw_done
  3722 0000197E 3C5C                    	cmp	al, '\'
  3723 00001980 743A                    	je	.pw_done
  3724 00001982 3C2A                    	cmp	al, '*'
  3725 00001984 741C                    	je	.pw_star_ext
  3726 00001986 3C3F                    	cmp	al, '?'
  3727 00001988 7505                    	jne	.pw_ext_char
  3728 0000198A C606[073D]01            	mov	byte [wild_active], 1
  3729                                  .pw_ext_char:
  3730 0000198F 3C61                    	cmp	al, 'a'
  3731 00001991 7206                    	jb	.pw_ext_store
  3732 00001993 3C7A                    	cmp	al, 'z'
  3733 00001995 7702                    	ja	.pw_ext_store
  3734 00001997 2C20                    	sub	al, 0x20
  3735                                  .pw_ext_store:
  3736 00001999 8805                    	mov	[di], al
  3737 0000199B 46                      	inc	si
  3738 0000199C 47                      	inc	di
  3739 0000199D 49                      	dec	cx
  3740 0000199E 75D4                    	jnz	.pw_ext
  3741 000019A0 EB1A                    	jmp	.pw_done
  3742                                  
  3743                                  .pw_star_ext:
  3744 000019A2 C606[073D]01            	mov	byte [wild_active], 1
  3745                                  	; Fill rest of extension with '?'
  3746 000019A7 5F                      	pop	di
  3747 000019A8 57                      	push	di
  3748 000019A9 83C708                  	add	di, 8
  3749 000019AC B90300                  	mov	cx, 3
  3750 000019AF B03F                    	mov	al, '?'
  3751                                  .pw_fill_ext:
  3752 000019B1 83F900                  	cmp	cx, 0
  3753 000019B4 7406                    	je	.pw_done
  3754 000019B6 8805                    	mov	[di], al
  3755 000019B8 47                      	inc	di
  3756 000019B9 49                      	dec	cx
  3757 000019BA EBF5                    	jmp	.pw_fill_ext
  3758                                  
  3759                                  .pw_done:
  3760 000019BC 5F                      	pop	di
  3761 000019BD 59                      	pop	cx
  3762 000019BE 58                      	pop	ax
  3763 000019BF C3                      	ret
  3764                                  
  3765                                  ; ============================================================================
  3766                                  ; match_wildcard — check if dir entry matches wildcard pattern
  3767                                  ; Input: SI = pointer to dir entry (11-byte name), DI = 11-byte pattern
  3768                                  ; Output: ZF=1 if match, ZF=0 if no match
  3769                                  ; Preserves all registers
  3770                                  ; ============================================================================
  3771                                  match_wildcard:
  3772 000019C0 51                      	push	cx
  3773 000019C1 56                      	push	si
  3774 000019C2 57                      	push	di
  3775 000019C3 B90B00                  	mov	cx, 11
  3776                                  .mw_next:
  3777 000019C6 8A05                    	mov	al, [di]
  3778 000019C8 3C3F                    	cmp	al, '?'
  3779 000019CA 7404                    	je	.mw_skip		; '?' matches anything
  3780 000019CC 3A04                    	cmp	al, [si]
  3781 000019CE 750A                    	jne	.mw_no_match
  3782                                  .mw_skip:
  3783 000019D0 46                      	inc	si
  3784 000019D1 47                      	inc	di
  3785 000019D2 49                      	dec	cx
  3786 000019D3 75F1                    	jnz	.mw_next
  3787                                  	; All 11 matched
  3788 000019D5 5F                      	pop	di
  3789 000019D6 5E                      	pop	si
  3790 000019D7 59                      	pop	cx
  3791 000019D8 F8                      	clc			; CF=0 = match
  3792 000019D9 C3                      	ret
  3793                                  .mw_no_match:
  3794 000019DA 5F                      	pop	di
  3795 000019DB 5E                      	pop	si
  3796 000019DC 59                      	pop	cx
  3797 000019DD F9                      	stc			; CF=1 = no match
  3798 000019DE C3                      	ret
  3799                                  
  3800                                  ; ============================================================================
  3801                                  ; EXEC — load and execute .COM file
  3802                                  ; ============================================================================
  3803                                  do_exec:
  3804                                  	; SI points to the command (filename)
  3805                                  	; Resolve path
  3806 000019DF E862FA                  	call	resolve_path
  3807 000019E2 7303E98400              	jc	.exec_not_found
  3808                                  	; Save SI — it now points to the command tail (arguments)
  3809 000019E7 8936[2B3E]              	mov	[exec_cmdtail_ptr], si
  3810                                  
  3811                                  	; If no extension was given, try .COM → .EXE → .BAT
  3812 000019EB C606[2A3E]00            	mov	byte [exec_try_ext], 0
  3813 000019F0 803E[F83C]20            	cmp	byte [exec_fname+8], ' '
  3814 000019F5 7547                    	jne	.has_ext
  3815 000019F7 C606[F83C]43            	mov	byte [exec_fname+8], 'C'
  3816 000019FC C606[F93C]4F            	mov	byte [exec_fname+9], 'O'
  3817 00001A01 C606[FA3C]4D            	mov	byte [exec_fname+10], 'M'
  3818 00001A06 C606[2A3E]01            	mov	byte [exec_try_ext], 1	; 1=try EXE next, 2=try BAT next
  3819 00001A0B EB31                    	jmp	.has_ext
  3820                                  .exec_retry_ext:
  3821 00001A0D 803E[2A3E]01            	cmp	byte [exec_try_ext], 1
  3822 00001A12 7516                    	jne	.exec_retry_bat
  3823 00001A14 C606[F83C]45            	mov	byte [exec_fname+8], 'E'
  3824 00001A19 C606[F93C]58            	mov	byte [exec_fname+9], 'X'
  3825 00001A1E C606[FA3C]45            	mov	byte [exec_fname+10], 'E'
  3826 00001A23 C606[2A3E]02            	mov	byte [exec_try_ext], 2
  3827 00001A28 EB14                    	jmp	.has_ext
  3828                                  .exec_retry_bat:
  3829 00001A2A C606[F83C]42            	mov	byte [exec_fname+8], 'B'
  3830 00001A2F C606[F93C]41            	mov	byte [exec_fname+9], 'A'
  3831 00001A34 C606[FA3C]54            	mov	byte [exec_fname+10], 'T'
  3832 00001A39 C606[2A3E]00            	mov	byte [exec_try_ext], 0
  3833                                  .has_ext:
  3834                                  
  3835                                  	; Read resolved directory
  3836 00001A3E E820FB                  	call	read_resolved_dir
  3837 00001A41 7303E9AC02              	jc	.exec_disk_err
  3838                                  
  3839                                  	; Search for file
  3840 00001A46 BE0040                  	mov	si, dir_buffer
  3841 00001A49 8B0E[0B3E]              	mov	cx, [resolved_dir_entries]
  3842                                  
  3843                                  .search_entry:
  3844 00001A4D 8A04                    	mov	al, [si]
  3845 00001A4F 3C00                    	cmp	al, 0x00
  3846 00001A51 7418                    	je	.exec_not_found
  3847 00001A53 3CE5                    	cmp	al, 0xE5
  3848 00001A55 740E                    	je	.search_next
  3849                                  
  3850                                  	; Compare 11-byte filename
  3851 00001A57 51                      	push	cx
  3852 00001A58 56                      	push	si
  3853 00001A59 BF[F03C]                	mov	di, exec_fname
  3854 00001A5C B90B00                  	mov	cx, 11
  3855 00001A5F F3A6                    	repe	cmpsb
  3856 00001A61 5E                      	pop	si
  3857 00001A62 59                      	pop	cx
  3858 00001A63 7418                    	je	.exec_found
  3859                                  
  3860                                  .search_next:
  3861 00001A65 83C620                  	add	si, 32
  3862 00001A68 49                      	dec	cx
  3863 00001A69 75E2                    	jnz	.search_entry
  3864                                  
  3865                                  .exec_not_found:
  3866                                  	; Try next extension: .COM → .EXE → .BAT
  3867 00001A6B 803E[2A3E]00            	cmp	byte [exec_try_ext], 0
  3868 00001A70 7402                    	je	.exec_really_not_found
  3869 00001A72 EB99                    	jmp	.exec_retry_ext
  3870                                  
  3871                                  .exec_really_not_found:
  3872 00001A74 BE[563A]                	mov	si, msg_bad_cmd
  3873 00001A77 E8481E                  	call	print_string
  3874 00001A7A E94EE6                  	jmp	cmd_loop
  3875                                  
  3876                                  .exec_found:
  3877                                  	; Check if this is a .BAT file — run through batch processor
  3878 00001A7D 803E[F83C]42            	cmp	byte [exec_fname+8], 'B'
  3879 00001A82 753E                    	jne	.exec_not_bat
  3880 00001A84 803E[F93C]41            	cmp	byte [exec_fname+9], 'A'
  3881 00001A89 7537                    	jne	.exec_not_bat
  3882 00001A8B 803E[FA3C]54            	cmp	byte [exec_fname+10], 'T'
  3883 00001A90 7530                    	jne	.exec_not_bat
  3884                                  	; It's a .BAT — rebuild name and call run_batch
  3885 00001A92 BF[9F3C]                	mov	di, cmd_buffer
  3886 00001A95 BE[F03C]                	mov	si, exec_fname
  3887 00001A98 B90800                  	mov	cx, 8
  3888                                  .exec_bat_copy:
  3889 00001A9B AC                      	lodsb
  3890 00001A9C 3C20                    	cmp	al, ' '
  3891 00001A9E 7406                    	je	.exec_bat_ext
  3892 00001AA0 8805                    	mov	[di], al
  3893 00001AA2 47                      	inc	di
  3894 00001AA3 49                      	dec	cx
  3895 00001AA4 75F5                    	jnz	.exec_bat_copy
  3896                                  .exec_bat_ext:
  3897 00001AA6 C6052E                  	mov	byte [di], '.'
  3898 00001AA9 47                      	inc	di
  3899 00001AAA C60542                  	mov	byte [di], 'B'
  3900 00001AAD 47                      	inc	di
  3901 00001AAE C60541                  	mov	byte [di], 'A'
  3902 00001AB1 47                      	inc	di
  3903 00001AB2 C60554                  	mov	byte [di], 'T'
  3904 00001AB5 47                      	inc	di
  3905 00001AB6 C60500                  	mov	byte [di], 0
  3906 00001AB9 BE[9F3C]                	mov	si, cmd_buffer
  3907 00001ABC E814FB                  	call	run_batch
  3908 00001ABF E909E6                  	jmp	cmd_loop
  3909                                  
  3910                                  .exec_not_bat:
  3911                                  	; SI points to the matching directory entry
  3912                                  	; Get starting cluster (offset 26)
  3913 00001AC2 8B441A                  	mov	ax, [si+26]
  3914 00001AC5 A3[163E]                	mov	[exec_cluster], ax
  3915                                  	; Get file size (offset 28)
  3916 00001AC8 8B441C                  	mov	ax, [si+28]
  3917 00001ACB A3[183E]                	mov	[exec_size], ax
  3918 00001ACE 8B441E                  	mov	ax, [si+30]
  3919 00001AD1 A3[1A3E]                	mov	[exec_size+2], ax
  3920                                  
  3921                                  	; Load FAT
  3922 00001AD4 E826F9                  	call	read_fat
  3923 00001AD7 7303E91602              	jc	.exec_disk_err
  3924                                  
  3925                                  	; Allocate memory for the program
  3926                                  	; Size in paragraphs = (file_size + 256 (PSP) + 15) / 16 + some stack
  3927                                  	; For .COM: allocate all available memory (like DOS)
  3928                                  	; For .EXE: allocate based on header
  3929 00001ADC BBFFFF                  	mov	bx, 0xFFFF		; Request maximum
  3930 00001ADF B448                    	mov	ah, 0x48
  3931 00001AE1 CD21                    	int	0x21			; Will fail but BX = largest block
  3932                                  	; Now allocate that largest block
  3933 00001AE3 B448                    	mov	ah, 0x48
  3934 00001AE5 CD21                    	int	0x21
  3935 00001AE7 7303E9F401              	jc	.exec_no_mem
  3936 00001AEC A3[1C3E]                	mov	[exec_seg], ax		; Save allocated segment
  3937                                  
  3938                                  	; Create PSP at allocated segment
  3939 00001AEF 8EC0                    	mov	es, ax
  3940                                  
  3941                                  	; Clear PSP area first
  3942 00001AF1 50                      	push	ax
  3943 00001AF2 51                      	push	cx
  3944 00001AF3 57                      	push	di
  3945 00001AF4 31FF                    	xor	di, di
  3946 00001AF6 31C0                    	xor	ax, ax
  3947 00001AF8 B98000                  	mov	cx, 128			; 256 bytes / 2
  3948 00001AFB F3AB                    	rep	stosw
  3949 00001AFD 5F                      	pop	di
  3950 00001AFE 59                      	pop	cx
  3951 00001AFF 58                      	pop	ax
  3952                                  
  3953                                  	; PSP:00 — INT 20h instruction
  3954 00001B00 26C6060000CD            	mov	byte [es:0x00], 0xCD	; INT
  3955 00001B06 26C606010020            	mov	byte [es:0x01], 0x20	; 20h
  3956                                  
  3957                                  	; PSP:02 — Memory top segment
  3958 00001B0C 26C706020000A0          	mov	word [es:0x02], 0xA000
  3959                                  
  3960                                  	; PSP:05 — FAR CALL to DOS (CP/M compat: CALL 5 → INT 21h)
  3961 00001B13 26C6060500CD            	mov	byte [es:0x05], 0xCD	; INT
  3962 00001B19 26C606060021            	mov	byte [es:0x06], 0x21	; 21h
  3963 00001B1F 26C6060700CB            	mov	byte [es:0x07], 0xCB	; RETF
  3964                                  
  3965                                  	; PSP:0A — Save parent's INT 22h (terminate handler)
  3966 00001B25 1E                      	push	ds
  3967 00001B26 31C0                    	xor	ax, ax
  3968 00001B28 8ED8                    	mov	ds, ax
  3969 00001B2A 3EA18800                	mov	ax, [ds:0x88]		; INT 22h offset
  3970 00001B2E 26A30A00                	mov	[es:0x0A], ax
  3971 00001B32 3EA18A00                	mov	ax, [ds:0x8A]		; INT 22h segment
  3972 00001B36 26A30C00                	mov	[es:0x0C], ax
  3973                                  	; PSP:0E — Save parent's INT 23h (Ctrl-C handler)
  3974 00001B3A 3EA18C00                	mov	ax, [ds:0x8C]		; INT 23h offset
  3975 00001B3E 26A30E00                	mov	[es:0x0E], ax
  3976 00001B42 3EA18E00                	mov	ax, [ds:0x8E]		; INT 23h segment
  3977 00001B46 26A31000                	mov	[es:0x10], ax
  3978                                  	; PSP:12 — Save parent's INT 24h (critical error handler)
  3979 00001B4A 3EA19000                	mov	ax, [ds:0x90]		; INT 24h offset
  3980 00001B4E 26A31200                	mov	[es:0x12], ax
  3981 00001B52 3EA19200                	mov	ax, [ds:0x92]		; INT 24h segment
  3982 00001B56 26A31400                	mov	[es:0x14], ax
  3983 00001B5A 1F                      	pop	ds
  3984                                  
  3985                                  	; PSP:16 — Parent PSP segment (shell's own segment)
  3986 00001B5B 26C70616000008          	mov	word [es:0x16], SHELL_SEG
  3987                                  
  3988                                  	; PSP:18 — File handle table (20 bytes)
  3989 00001B62 26C606180001            	mov	byte [es:0x18], 0x01	; stdin
  3990 00001B68 26C606190001            	mov	byte [es:0x19], 0x01	; stdout
  3991 00001B6E 26C6061A0001            	mov	byte [es:0x1A], 0x01	; stderr
  3992 00001B74 26C6061B0000            	mov	byte [es:0x1B], 0x00	; stdaux
  3993 00001B7A 26C6061C0002            	mov	byte [es:0x1C], 0x02	; stdprn
  3994                                  	; Handles 5-19 already zeroed (closed)
  3995                                  
  3996                                  	; PSP:2C — Environment segment
  3997 00001B80 A1[2D3E]                	mov	ax, [env_seg]
  3998 00001B83 26A32C00                	mov	[es:0x2C], ax
  3999                                  
  4000                                  	; PSP:32 — Max file handles
  4001 00001B87 26C70632001400          	mov	word [es:0x32], 20
  4002                                  	; PSP:34 — Pointer to handle table (default: PSP:18)
  4003 00001B8E 26C70634001800          	mov	word [es:0x34], 0x18
  4004 00001B95 A1[1C3E]                	mov	ax, [exec_seg]
  4005 00001B98 26A33600                	mov	word [es:0x36], ax
  4006                                  
  4007                                  	; PSP:50 — INT 21h / RETF (for CP/M-style CALL PSP:50)
  4008 00001B9C 26C6065000CD            	mov	byte [es:0x50], 0xCD	; INT
  4009 00001BA2 26C606510021            	mov	byte [es:0x51], 0x21	; 21h
  4010 00001BA8 26C6065200CB            	mov	byte [es:0x52], 0xCB	; RETF
  4011                                  
  4012                                  	; PSP:5C — FCB #1 (parse first arg from command tail)
  4013                                  	; DS:SI = source string (shell seg), ES:DI = FCB in PSP
  4014 00001BAE 56                      	push	si
  4015 00001BAF 57                      	push	di
  4016 00001BB0 8B36[2B3E]              	mov	si, [exec_cmdtail_ptr]
  4017                                  	; DS is already SHELL_SEG, ES is already PSP seg
  4018 00001BB4 BF5C00                  	mov	di, 0x5C
  4019 00001BB7 B80029                  	mov	ax, 0x2900
  4020 00001BBA CD21                    	int	0x21
  4021                                  	; PSP:6C — FCB #2 (parse second arg)
  4022                                  	; SI was advanced past first arg by AH=29
  4023 00001BBC BF6C00                  	mov	di, 0x6C
  4024 00001BBF B80029                  	mov	ax, 0x2900
  4025 00001BC2 CD21                    	int	0x21
  4026 00001BC4 5F                      	pop	di
  4027 00001BC5 5E                      	pop	si
  4028                                  
  4029                                  	; Command tail at PSP:80h
  4030                                  	; Format: [length byte] [space] [arguments...] [0x0D]
  4031 00001BC6 56                      	push	si
  4032 00001BC7 57                      	push	di
  4033 00001BC8 8B36[2B3E]              	mov	si, [exec_cmdtail_ptr]
  4034 00001BCC BF8100                  	mov	di, 0x81		; Start after length byte
  4035 00001BCF 31C9                    	xor	cx, cx			; Count characters
  4036                                  	; Copy command tail
  4037                                  .exec_copy_tail:
  4038 00001BD1 AC                      	lodsb
  4039 00001BD2 3C00                    	cmp	al, 0
  4040 00001BD4 7409                    	je	.exec_tail_done
  4041 00001BD6 83F97E                  	cmp	cx, 126			; Max 126 chars
  4042 00001BD9 7304                    	jae	.exec_tail_done
  4043 00001BDB AA                      	stosb
  4044 00001BDC 41                      	inc	cx
  4045 00001BDD EBF2                    	jmp	.exec_copy_tail
  4046                                  .exec_tail_done:
  4047 00001BDF 26C6050D                	mov	byte [es:di], 0x0D	; Terminate with CR
  4048 00001BE3 26880E8000              	mov	byte [es:0x80], cl	; Length byte
  4049 00001BE8 5F                      	pop	di
  4050 00001BE9 5E                      	pop	si
  4051                                  
  4052                                  	; Set default DTA to PSP:0080
  4053 00001BEA A1[1C3E]                	mov	ax, [exec_seg]
  4054 00001BED A3[6C3E]                	mov	[dta_seg], ax
  4055 00001BF0 C706[6E3E]8000          	mov	word [dta_off], 0x0080
  4056                                  
  4057                                  	; Load file to allocated_seg:0100
  4058                                  	; Advance ES by cluster size each iteration to avoid 64K crossing
  4059 00001BF6 BB0001                  	mov	bx, 0x0100
  4060 00001BF9 A1[163E]                	mov	ax, [exec_cluster]
  4061                                  
  4062                                  .load_cluster:
  4063 00001BFC 50                      	push	ax
  4064 00001BFD E8D2F1                  	call	cluster_to_chs
  4065 00001C00 06                      	push	es
  4066 00001C01 B402                    	mov	ah, 0x02
  4067 00001C03 B002                    	mov	al, SECS_PER_CLUST
  4068 00001C05 8A16[0D3E]              	mov	dl, [resolved_drive]
  4069 00001C09 CD13                    	int	0x13
  4070 00001C0B 07                      	pop	es
  4071 00001C0C 7303E9D800              	jc	.exec_disk_err_free
  4072                                  
  4073                                  	; Advance ES by cluster size (avoids 64K boundary crossing)
  4074 00001C11 8CC0                    	mov	ax, es
  4075 00001C13 83C040                  	add	ax, SECS_PER_CLUST * 512 / 16
  4076 00001C16 8EC0                    	mov	es, ax
  4077                                  	; BX stays at same offset within each 1K window
  4078                                  
  4079 00001C18 58                      	pop	ax
  4080 00001C19 E8DF00                  	call	fat12_next_cluster
  4081 00001C1C 3DF80F                  	cmp	ax, 0xFF8
  4082 00001C1F 72DB                    	jb	.load_cluster
  4083                                  
  4084                                  	; Check if .EXE by looking at first two bytes (MZ signature)
  4085 00001C21 A1[1C3E]                	mov	ax, [exec_seg]
  4086 00001C24 8EC0                    	mov	es, ax
  4087 00001C26 26813E00014D5A          	cmp	word [es:0x100], 0x5A4D	; 'MZ'
  4088 00001C2D 7435                    	je	.exec_is_exe
  4089                                  
  4090                                  	; === .COM execution ===
  4091                                  	; Set up far jump target BEFORE changing DS
  4092 00001C2F C706[263E]0001          	mov	word [exec_jmp_ip], 0x0100	; Reset (EXE may have changed it)
  4093 00001C35 A1[1C3E]                	mov	ax, [exec_seg]
  4094 00001C38 A3[283E]                	mov	[exec_jmp_cs], ax
  4095                                  
  4096                                  	; Update INT 20h to return to shell
  4097 00001C3B 50                      	push	ax
  4098 00001C3C 31C0                    	xor	ax, ax
  4099 00001C3E 06                      	push	es
  4100 00001C3F 8EC0                    	mov	es, ax
  4101 00001C41 26C7068000[5338]        	mov	word [es:0x80], int20_handler
  4102 00001C48 26C70682000008          	mov	word [es:0x82], SHELL_SEG
  4103 00001C4F 07                      	pop	es
  4104 00001C50 58                      	pop	ax
  4105                                  
  4106                                  	; Now set up program segments
  4107 00001C51 A1[1C3E]                	mov	ax, [exec_seg]
  4108 00001C54 8ED8                    	mov	ds, ax
  4109 00001C56 8EC0                    	mov	es, ax
  4110 00001C58 FA                      	cli
  4111 00001C59 8ED0                    	mov	ss, ax
  4112 00001C5B BCFEFF                  	mov	sp, 0xFFFE
  4113 00001C5E FB                      	sti
  4114                                  
  4115                                  	; Jump to program
  4116 00001C5F 2EFF2E[263E]            	jmp	far [cs:exec_jmp_ip]
  4117                                  
  4118                                  	; === .EXE execution ===
  4119                                  .exec_is_exe:
  4120                                  	; Read MZ header from exec_seg:0100
  4121 00001C64 A1[1C3E]                	mov	ax, [exec_seg]
  4122 00001C67 8EC0                    	mov	es, ax
  4123                                  
  4124                                  	; Header size in paragraphs (at file offset 0x08 → memory 0x108)
  4125 00001C69 26A10801                	mov	ax, [es:0x108]
  4126 00001C6D A3[223E]                	mov	[exe_hdr_size], ax
  4127                                  
  4128                                  	; Code segment = exec_seg + 0x10 (PSP) + header_paras
  4129 00001C70 8B1E[1C3E]              	mov	bx, [exec_seg]
  4130 00001C74 83C310                  	add	bx, 0x10		; Past PSP
  4131 00001C77 01C3                    	add	bx, ax			; Past MZ header
  4132 00001C79 891E[243E]              	mov	[exe_load_seg], bx
  4133                                  
  4134                                  	; Get initial CS:IP from header
  4135 00001C7D 26A11601                	mov	ax, [es:0x116]		; Initial CS (relative)
  4136 00001C81 01D8                    	add	ax, bx			; Make absolute
  4137 00001C83 A3[283E]                	mov	[exec_jmp_cs], ax	; CS for far jump
  4138                                  
  4139 00001C86 26A11401                	mov	ax, [es:0x114]		; Initial IP
  4140 00001C8A A3[263E]                	mov	[exec_jmp_ip], ax	; IP for far jump
  4141                                  
  4142                                  	; Get initial SS:SP from header
  4143 00001C8D 26A10E01                	mov	ax, [es:0x10E]		; Initial SS (relative)
  4144 00001C91 01D8                    	add	ax, bx			; Make absolute
  4145 00001C93 268B161001              	mov	dx, [es:0x110]		; Initial SP
  4146                                  
  4147                                  	; Apply relocations
  4148 00001C98 268B0E0601              	mov	cx, [es:0x106]		; Relocation count
  4149 00001C9D E32F                    	jcxz	.exec_exe_no_reloc
  4150 00001C9F 268B3E1801              	mov	di, [es:0x118]		; Relocation table file offset
  4151 00001CA4 81C70001                	add	di, 0x100		; Adjust for load at :0100
  4152                                  
  4153                                  .exec_exe_reloc:
  4154 00001CA8 51                      	push	cx
  4155 00001CA9 268B35                  	mov	si, [es:di]		; Reloc offset
  4156 00001CAC 268B4D02                	mov	cx, [es:di+2]		; Reloc segment (relative)
  4157 00001CB0 030E[243E]              	add	cx, [exe_load_seg]	; Make absolute
  4158 00001CB4 06                      	push	es
  4159 00001CB5 57                      	push	di
  4160 00001CB6 8EC1                    	mov	es, cx
  4161 00001CB8 89F7                    	mov	di, si
  4162 00001CBA 268B0D                  	mov	cx, [es:di]		; Read current value
  4163 00001CBD 2E030E[243E]            	add	cx, [cs:exe_load_seg]	; Add load segment
  4164 00001CC2 26890D                  	mov	[es:di], cx		; Write back
  4165 00001CC5 5F                      	pop	di
  4166 00001CC6 07                      	pop	es
  4167 00001CC7 59                      	pop	cx
  4168 00001CC8 83C704                  	add	di, 4
  4169 00001CCB 49                      	dec	cx
  4170 00001CCC 75DA                    	jnz	.exec_exe_reloc
  4171                                  
  4172                                  .exec_exe_no_reloc:
  4173                                  	; Set up execution
  4174 00001CCE FA                      	cli
  4175 00001CCF 8ED0                    	mov	ss, ax			; SS from header
  4176 00001CD1 89D4                    	mov	sp, dx			; SP from header
  4177 00001CD3 FB                      	sti
  4178                                  
  4179                                  	; DS = ES = PSP segment (standard DOS .EXE convention)
  4180 00001CD4 A1[1C3E]                	mov	ax, [exec_seg]
  4181 00001CD7 8ED8                    	mov	ds, ax
  4182 00001CD9 8EC0                    	mov	es, ax
  4183                                  
  4184                                  	; Far jump to CS:IP
  4185 00001CDB 2EFF2E[263E]            	jmp	far [cs:exec_jmp_ip]
  4186                                  
  4187                                  .exec_no_mem:
  4188 00001CE0 BE[2F3A]                	mov	si, msg_no_mem
  4189 00001CE3 E8DC1B                  	call	print_string
  4190 00001CE6 E9E2E3                  	jmp	cmd_loop
  4191                                  
  4192                                  .exec_disk_err_free:
  4193 00001CE9 58                      	pop	ax			; Clean stack from push in load_cluster
  4194                                  	; Free allocated memory
  4195 00001CEA 8E06[1C3E]              	mov	es, [exec_seg]
  4196 00001CEE B449                    	mov	ah, 0x49
  4197 00001CF0 CD21                    	int	0x21
  4198                                  
  4199                                  .exec_disk_err:
  4200 00001CF2 BE[853A]                	mov	si, msg_disk_err
  4201 00001CF5 E8CA1B                  	call	print_string
  4202 00001CF8 E9D0E3                  	jmp	cmd_loop
  4203                                  
  4204                                  ; ============================================================================
  4205                                  ; fat12_next_cluster — Get next cluster from FAT12
  4206                                  ; ============================================================================
  4207                                  ; Input:  AX = current cluster
  4208                                  ; Output: AX = next cluster (>= 0xFF8 means end)
  4209                                  fat12_next_cluster:
  4210 00001CFB 53                      	push	bx
  4211 00001CFC 51                      	push	cx
  4212 00001CFD 52                      	push	dx
  4213                                  
  4214 00001CFE 89C2                    	mov	dx, ax			; Save cluster number for odd/even test
  4215 00001D00 89C3                    	mov	bx, ax
  4216                                  	; FAT12 entry offset = cluster * 1.5 = cluster + cluster/2
  4217 00001D02 89C1                    	mov	cx, ax
  4218 00001D04 D1E9                    	shr	cx, 1
  4219 00001D06 01CB                    	add	bx, cx			; BX = byte offset into FAT
  4220                                  
  4221                                  	; Read 16-bit value from FAT buffer
  4222 00001D08 1E                      	push	ds
  4223 00001D09 B90008                  	mov	cx, SHELL_SEG
  4224 00001D0C 8ED9                    	mov	ds, cx
  4225 00001D0E 8B87004E                	mov	ax, [fat_buffer + bx]
  4226 00001D12 1F                      	pop	ds
  4227                                  
  4228                                  	; If original cluster was odd, shift right 4
  4229 00001D13 F7C20100                	test	dx, 1			; Was original cluster odd?
  4230 00001D17 7406                    	jz	.even_cluster
  4231 00001D19 B104                    	mov	cl, 4
  4232 00001D1B D3E8                    	shr	ax, cl
  4233 00001D1D EB03                    	jmp	.fat_done
  4234                                  .even_cluster:
  4235 00001D1F 25FF0F                  	and	ax, 0x0FFF
  4236                                  .fat_done:
  4237 00001D22 5A                      	pop	dx
  4238 00001D23 59                      	pop	cx
  4239 00001D24 5B                      	pop	bx
  4240 00001D25 C3                      	ret
  4241                                  
  4242                                  ; ============================================================================
  4243                                  ; INT 21h — DOS Services Handler
  4244                                  ; ============================================================================
  4245                                  ; Provides basic DOS-compatible services for .COM programs.
  4246                                  ;
  4247                                  int21_handler:
  4248 00001D26 80FC01                  	cmp	ah, 0x01
  4249 00001D29 7503E91D02              	je	.i21_01
  4250 00001D2E 80FC02                  	cmp	ah, 0x02
  4251 00001D31 7503E92002              	je	.i21_02
  4252 00001D36 80FC06                  	cmp	ah, 0x06
  4253 00001D39 7503E92602              	je	.i21_06
  4254 00001D3E 80FC07                  	cmp	ah, 0x07
  4255 00001D41 7503E94102              	je	.i21_07
  4256 00001D46 80FC08                  	cmp	ah, 0x08
  4257 00001D49 7503E93E02              	je	.i21_08
  4258 00001D4E 80FC09                  	cmp	ah, 0x09
  4259 00001D51 7503E93B02              	je	.i21_09
  4260 00001D56 80FC0A                  	cmp	ah, 0x0A
  4261 00001D59 7503E94A02              	je	.i21_0a
  4262 00001D5E 80FC0B                  	cmp	ah, 0x0B
  4263 00001D61 7503E99E02              	je	.i21_0b
  4264 00001D66 80FC0C                  	cmp	ah, 0x0C
  4265 00001D69 7503E9A202              	je	.i21_0c
  4266 00001D6E 80FC25                  	cmp	ah, 0x25
  4267 00001D71 7503E99F02              	je	.i21_25
  4268 00001D76 80FC30                  	cmp	ah, 0x30
  4269 00001D79 7503E9B102              	je	.i21_30
  4270 00001D7E 80FC35                  	cmp	ah, 0x35
  4271 00001D81 7503E9B102              	je	.i21_35
  4272 00001D86 80FC3C                  	cmp	ah, 0x3C
  4273 00001D89 7503E9C102              	je	.i21_3c
  4274 00001D8E 80FC3D                  	cmp	ah, 0x3D
  4275 00001D91 7503E97204              	je	.i21_3d
  4276 00001D96 80FC3E                  	cmp	ah, 0x3E
  4277 00001D99 7503E98805              	je	.i21_3e
  4278 00001D9E 80FC3F                  	cmp	ah, 0x3F
  4279 00001DA1 7503E91706              	je	.i21_3f
  4280 00001DA6 80FC40                  	cmp	ah, 0x40
  4281 00001DA9 7503E96807              	je	.i21_40
  4282 00001DAE 80FC42                  	cmp	ah, 0x42
  4283 00001DB1 7503E91A09              	je	.i21_42
  4284 00001DB6 80FC48                  	cmp	ah, 0x48
  4285 00001DB9 7503E9A809              	je	.i21_48
  4286 00001DBE 80FC49                  	cmp	ah, 0x49
  4287 00001DC1 7503E96F0A              	je	.i21_49
  4288 00001DC6 80FC4A                  	cmp	ah, 0x4A
  4289 00001DC9 7503E9A10A              	je	.i21_4a
  4290 00001DCE 80FC19                  	cmp	ah, 0x19
  4291 00001DD1 7503E94A0B              	je	.i21_19
  4292 00001DD6 80FC1A                  	cmp	ah, 0x1A
  4293 00001DD9 7503E9470B              	je	.i21_1a
  4294 00001DDE 80FC2A                  	cmp	ah, 0x2A
  4295 00001DE1 7503E94A0B              	je	.i21_2a
  4296 00001DE6 80FC2C                  	cmp	ah, 0x2C
  4297 00001DE9 7503E9880B              	je	.i21_2c
  4298 00001DEE 80FC2F                  	cmp	ah, 0x2F
  4299 00001DF1 7503E9C00B              	je	.i21_2f
  4300 00001DF6 80FC36                  	cmp	ah, 0x36
  4301 00001DF9 7503E9C30B              	je	.i21_36
  4302 00001DFE 80FC44                  	cmp	ah, 0x44
  4303 00001E01 7503E9FA0B              	je	.i21_44
  4304 00001E06 80FC47                  	cmp	ah, 0x47
  4305 00001E09 7503E91F0C              	je	.i21_47
  4306 00001E0E 80FC4C                  	cmp	ah, 0x4C
  4307 00001E11 7503E9A418              	je	.i21_4c
  4308 00001E16 80FC4D                  	cmp	ah, 0x4D
  4309 00001E19 7503E9340C              	je	.i21_4d
  4310 00001E1E 80FC0D                  	cmp	ah, 0x0D
  4311 00001E21 7503E9370C              	je	.i21_0d
  4312 00001E26 80FC0E                  	cmp	ah, 0x0E
  4313 00001E29 7503E9300C              	je	.i21_0e
  4314 00001E2E 80FC26                  	cmp	ah, 0x26
  4315 00001E31 7503E9F517              	je	.i21_26
  4316 00001E36 80FC29                  	cmp	ah, 0x29
  4317 00001E39 7503E92D0C              	je	.i21_29
  4318 00001E3E 80FC39                  	cmp	ah, 0x39
  4319 00001E41 7503E9C90C              	je	.i21_39
  4320 00001E46 80FC3A                  	cmp	ah, 0x3A
  4321 00001E49 7503E9480E              	je	.i21_3a
  4322 00001E4E 80FC3B                  	cmp	ah, 0x3B
  4323 00001E51 7503E97A0F              	je	.i21_3b
  4324 00001E56 80FC41                  	cmp	ah, 0x41
  4325 00001E59 7503E92410              	je	.i21_41
  4326 00001E5E 80FC43                  	cmp	ah, 0x43
  4327 00001E61 7503E9D410              	je	.i21_43
  4328 00001E66 80FC4E                  	cmp	ah, 0x4E
  4329 00001E69 7503E9E510              	je	.i21_4e
  4330 00001E6E 80FC4F                  	cmp	ah, 0x4F
  4331 00001E71 7503E91412              	je	.i21_4f
  4332 00001E76 80FC56                  	cmp	ah, 0x56
  4333 00001E79 7503E93613              	je	.i21_56
  4334 00001E7E 80FC57                  	cmp	ah, 0x57
  4335 00001E81 7503E91E14              	je	.i21_57
  4336 00001E86 80FC33                  	cmp	ah, 0x33
  4337 00001E89 7503E9BF17              	je	.i21_33
  4338 00001E8E 80FC37                  	cmp	ah, 0x37
  4339 00001E91 7503E9D217              	je	.i21_37
  4340 00001E96 80FC38                  	cmp	ah, 0x38
  4341 00001E99 7503E9D217              	je	.i21_38
  4342 00001E9E 80FC54                  	cmp	ah, 0x54
  4343 00001EA1 7503E9EC17              	je	.i21_54
  4344 00001EA6 80FC58                  	cmp	ah, 0x58
  4345 00001EA9 7503E9E917              	je	.i21_58
  4346 00001EAE 80FC59                  	cmp	ah, 0x59
  4347 00001EB1 7503E9F917              	je	.i21_59
  4348 00001EB6 80FC0F                  	cmp	ah, 0x0F
  4349 00001EB9 7503E90014              	je	.i21_0f
  4350 00001EBE 80FC10                  	cmp	ah, 0x10
  4351 00001EC1 7503E9A414              	je	.i21_10
  4352 00001EC6 80FC11                  	cmp	ah, 0x11
  4353 00001EC9 7503E99F14              	je	.i21_11
  4354 00001ECE 80FC12                  	cmp	ah, 0x12
  4355 00001ED1 7503E95115              	je	.i21_12
  4356 00001ED6 80FC13                  	cmp	ah, 0x13
  4357 00001ED9 7503E9F315              	je	.i21_13
  4358 00001EDE 80FC14                  	cmp	ah, 0x14
  4359 00001EE1 7503E99E16              	je	.i21_14
  4360 00001EE6 80FC15                  	cmp	ah, 0x15
  4361 00001EE9 7503E99916              	je	.i21_15
  4362 00001EEE 80FC16                  	cmp	ah, 0x16
  4363 00001EF1 7503E99416              	je	.i21_16
  4364 00001EF6 80FC2B                  	cmp	ah, 0x2B
  4365 00001EF9 7503E98F16              	je	.i21_2b
  4366 00001EFE 80FC2D                  	cmp	ah, 0x2D
  4367 00001F01 7503E9D816              	je	.i21_2d
  4368 00001F06 80FC62                  	cmp	ah, 0x62
  4369 00001F09 7503E9490B              	je	.i21_62
  4370                                  	; Unhandled — print [XX] for debugging
  4371 00001F0E 53                      	push	bx
  4372 00001F0F 52                      	push	dx
  4373 00001F10 88E3                    	mov	bl, ah
  4374 00001F12 B25B                    	mov	dl, '['
  4375 00001F14 B402                    	mov	ah, 0x02
  4376 00001F16 CD21                    	int	0x21
  4377 00001F18 88D8                    	mov	al, bl
  4378 00001F1A D0E8                    	shr	al, 1
  4379 00001F1C D0E8                    	shr	al, 1
  4380 00001F1E D0E8                    	shr	al, 1
  4381 00001F20 D0E8                    	shr	al, 1
  4382 00001F22 0430                    	add	al, '0'
  4383 00001F24 3C39                    	cmp	al, '9'
  4384 00001F26 7602                    	jbe	.unh_h1
  4385 00001F28 0407                    	add	al, 7
  4386                                  .unh_h1:
  4387 00001F2A 88C2                    	mov	dl, al
  4388 00001F2C B402                    	mov	ah, 0x02
  4389 00001F2E CD21                    	int	0x21
  4390 00001F30 88D8                    	mov	al, bl
  4391 00001F32 240F                    	and	al, 0x0F
  4392 00001F34 0430                    	add	al, '0'
  4393 00001F36 3C39                    	cmp	al, '9'
  4394 00001F38 7602                    	jbe	.unh_h2
  4395 00001F3A 0407                    	add	al, 7
  4396                                  .unh_h2:
  4397 00001F3C 88C2                    	mov	dl, al
  4398 00001F3E B402                    	mov	ah, 0x02
  4399 00001F40 CD21                    	int	0x21
  4400 00001F42 B25D                    	mov	dl, ']'
  4401 00001F44 B402                    	mov	ah, 0x02
  4402 00001F46 CD21                    	int	0x21
  4403 00001F48 5A                      	pop	dx
  4404 00001F49 5B                      	pop	bx
  4405 00001F4A CF                      	iret
  4406                                  
  4407                                  ; --- AH=01: Read character with echo ---
  4408                                  .i21_01:
  4409 00001F4B B400                    	mov	ah, 0x00
  4410 00001F4D CD16                    	int	0x16		; Wait for key
  4411 00001F4F 50                      	push	ax
  4412 00001F50 B40E                    	mov	ah, 0x0E
  4413 00001F52 CD10                    	int	0x10		; Echo it
  4414 00001F54 58                      	pop	ax
  4415 00001F55 CF                      	iret
  4416                                  
  4417                                  ; --- AH=02: Display character (DL) ---
  4418                                  .i21_02:
  4419 00001F56 50                      	push	ax
  4420 00001F57 53                      	push	bx
  4421 00001F58 88D0                    	mov	al, dl
  4422 00001F5A B40E                    	mov	ah, 0x0E
  4423 00001F5C BB0700                  	mov	bx, 0x0007
  4424 00001F5F CD10                    	int	0x10
  4425 00001F61 5B                      	pop	bx
  4426 00001F62 58                      	pop	ax
  4427 00001F63 CF                      	iret
  4428                                  
  4429                                  ; --- AH=06: Direct console I/O ---
  4430                                  ; DL=FF: input (ZF=1 if no char, AL=char if available)
  4431                                  ; DL<FF: output character DL
  4432                                  .i21_06:
  4433 00001F64 80FAFF                  	cmp	dl, 0xFF
  4434 00001F67 740E                    	je	.i21_06_input
  4435                                  	; Output
  4436 00001F69 50                      	push	ax
  4437 00001F6A 53                      	push	bx
  4438 00001F6B 88D0                    	mov	al, dl
  4439 00001F6D B40E                    	mov	ah, 0x0E
  4440 00001F6F BB0700                  	mov	bx, 0x0007
  4441 00001F72 CD10                    	int	0x10
  4442 00001F74 5B                      	pop	bx
  4443 00001F75 58                      	pop	ax
  4444 00001F76 CF                      	iret
  4445                                  .i21_06_input:
  4446 00001F77 B401                    	mov	ah, 0x01
  4447 00001F79 CD16                    	int	0x16		; Check key
  4448 00001F7B 7407                    	jz	.i21_06_nokey
  4449 00001F7D B400                    	mov	ah, 0x00
  4450 00001F7F CD16                    	int	0x16		; Get key
  4451 00001F81 08C0                    	or	al, al		; Clear ZF (char available)
  4452 00001F83 CF                      	iret
  4453                                  .i21_06_nokey:
  4454 00001F84 30C0                    	xor	al, al		; ZF=1 (no char)
  4455 00001F86 CF                      	iret
  4456                                  
  4457                                  ; --- AH=07: Direct char input without echo ---
  4458                                  .i21_07:
  4459 00001F87 B400                    	mov	ah, 0x00
  4460 00001F89 CD16                    	int	0x16
  4461 00001F8B CF                      	iret
  4462                                  
  4463                                  ; --- AH=08: Read char without echo (checks Ctrl-C) ---
  4464                                  .i21_08:
  4465 00001F8C B400                    	mov	ah, 0x00
  4466 00001F8E CD16                    	int	0x16
  4467 00001F90 CF                      	iret
  4468                                  
  4469                                  ; --- AH=09: Print $-terminated string at DS:DX ---
  4470                                  .i21_09:
  4471 00001F91 50                      	push	ax
  4472 00001F92 53                      	push	bx
  4473 00001F93 56                      	push	si
  4474 00001F94 89D6                    	mov	si, dx
  4475                                  .i21_09_loop:
  4476 00001F96 AC                      	lodsb
  4477 00001F97 3C24                    	cmp	al, '$'
  4478 00001F99 7409                    	je	.i21_09_done
  4479 00001F9B B40E                    	mov	ah, 0x0E
  4480 00001F9D BB0700                  	mov	bx, 0x0007
  4481 00001FA0 CD10                    	int	0x10
  4482 00001FA2 EBF2                    	jmp	.i21_09_loop
  4483                                  .i21_09_done:
  4484 00001FA4 5E                      	pop	si
  4485 00001FA5 5B                      	pop	bx
  4486 00001FA6 58                      	pop	ax
  4487 00001FA7 CF                      	iret
  4488                                  
  4489                                  ; --- AH=0A: Buffered input ---
  4490                                  ; DS:DX points to buffer: [max_len] [actual_len] [data...]
  4491                                  .i21_0a:
  4492 00001FA8 50                      	push	ax
  4493 00001FA9 53                      	push	bx
  4494 00001FAA 51                      	push	cx
  4495 00001FAB 57                      	push	di
  4496 00001FAC 89D7                    	mov	di, dx
  4497 00001FAE 8A0D                    	mov	cl, [di]	; Max length
  4498 00001FB0 30ED                    	xor	ch, ch
  4499 00001FB2 49                      	dec	cx		; Leave room for CR
  4500 00001FB3 83C702                  	add	di, 2		; Point to data area
  4501 00001FB6 31DB                    	xor	bx, bx		; Character count
  4502                                  .i21_0a_loop:
  4503 00001FB8 B400                    	mov	ah, 0x00
  4504 00001FBA CD16                    	int	0x16		; Read key
  4505 00001FBC 3C0D                    	cmp	al, 0x0D	; Enter?
  4506 00001FBE 742B                    	je	.i21_0a_done
  4507 00001FC0 3C08                    	cmp	al, 0x08	; Backspace?
  4508 00001FC2 740D                    	je	.i21_0a_bs
  4509 00001FC4 39CB                    	cmp	bx, cx		; Buffer full?
  4510 00001FC6 7DF0                    	jge	.i21_0a_loop
  4511 00001FC8 8801                    	mov	[di+bx], al
  4512 00001FCA 43                      	inc	bx
  4513                                  	; Echo
  4514 00001FCB B40E                    	mov	ah, 0x0E
  4515 00001FCD CD10                    	int	0x10
  4516 00001FCF EBE7                    	jmp	.i21_0a_loop
  4517                                  .i21_0a_bs:
  4518 00001FD1 83FB00                  	cmp	bx, 0
  4519 00001FD4 74E2                    	je	.i21_0a_loop
  4520 00001FD6 4B                      	dec	bx
  4521 00001FD7 B008                    	mov	al, 0x08
  4522 00001FD9 B40E                    	mov	ah, 0x0E
  4523 00001FDB CD10                    	int	0x10
  4524 00001FDD B020                    	mov	al, ' '
  4525 00001FDF B40E                    	mov	ah, 0x0E
  4526 00001FE1 CD10                    	int	0x10
  4527 00001FE3 B008                    	mov	al, 0x08
  4528 00001FE5 B40E                    	mov	ah, 0x0E
  4529 00001FE7 CD10                    	int	0x10
  4530 00001FE9 EBCD                    	jmp	.i21_0a_loop
  4531                                  .i21_0a_done:
  4532 00001FEB C6010D                  	mov	byte [di+bx], 0x0D	; CR at end
  4533 00001FEE 89D7                    	mov	di, dx
  4534 00001FF0 885D01                  	mov	[di+1], bl		; Store actual length
  4535                                  	; Echo CR/LF
  4536 00001FF3 B00D                    	mov	al, 0x0D
  4537 00001FF5 B40E                    	mov	ah, 0x0E
  4538 00001FF7 CD10                    	int	0x10
  4539 00001FF9 B00A                    	mov	al, 0x0A
  4540 00001FFB B40E                    	mov	ah, 0x0E
  4541 00001FFD CD10                    	int	0x10
  4542 00001FFF 5F                      	pop	di
  4543 00002000 59                      	pop	cx
  4544 00002001 5B                      	pop	bx
  4545 00002002 58                      	pop	ax
  4546 00002003 CF                      	iret
  4547                                  
  4548                                  ; --- AH=0B: Check input status ---
  4549                                  ; Returns AL=FF if char available, AL=00 if not
  4550                                  .i21_0b:
  4551 00002004 B401                    	mov	ah, 0x01
  4552 00002006 CD16                    	int	0x16
  4553 00002008 7403                    	jz	.i21_0b_none
  4554 0000200A B0FF                    	mov	al, 0xFF
  4555 0000200C CF                      	iret
  4556                                  .i21_0b_none:
  4557 0000200D 30C0                    	xor	al, al
  4558 0000200F CF                      	iret
  4559                                  
  4560                                  ; --- AH=0C: Flush buffer then read ---
  4561                                  ; AL = function to call after flush (01, 06, 07, 08, 0A)
  4562                                  .i21_0c:
  4563                                  	; We don't have a buffer to flush — just dispatch
  4564 00002010 88C4                    	mov	ah, al
  4565 00002012 CD21                    	int	0x21
  4566 00002014 CF                      	iret
  4567                                  
  4568                                  ; --- AH=25: Set interrupt vector ---
  4569                                  ; AL = interrupt number, DS:DX = new handler
  4570                                  .i21_25:
  4571 00002015 50                      	push	ax
  4572 00002016 53                      	push	bx
  4573 00002017 06                      	push	es
  4574 00002018 31DB                    	xor	bx, bx
  4575 0000201A 8EC3                    	mov	es, bx
  4576 0000201C 30FF                    	xor	bh, bh
  4577 0000201E 88C3                    	mov	bl, al
  4578 00002020 D1E3                    	shl	bx, 1
  4579 00002022 D1E3                    	shl	bx, 1		; BX = AL * 4
  4580 00002024 268917                  	mov	[es:bx], dx	; Offset
  4581 00002027 268C5F02                	mov	[es:bx+2], ds	; Segment
  4582 0000202B 07                      	pop	es
  4583 0000202C 5B                      	pop	bx
  4584 0000202D 58                      	pop	ax
  4585 0000202E CF                      	iret
  4586                                  
  4587                                  ; --- AH=30: Get DOS version ---
  4588                                  ; Returns AL=major, AH=minor
  4589                                  .i21_30:
  4590 0000202F B80300                  	mov	ax, 0x0003	; DOS 3.0
  4591 00002032 31DB                    	xor	bx, bx
  4592 00002034 31C9                    	xor	cx, cx
  4593 00002036 CF                      	iret
  4594                                  
  4595                                  ; --- AH=35: Get interrupt vector ---
  4596                                  ; AL = interrupt number → ES:BX = handler address
  4597                                  .i21_35:
  4598 00002037 50                      	push	ax
  4599 00002038 1E                      	push	ds
  4600 00002039 31DB                    	xor	bx, bx
  4601 0000203B 8EDB                    	mov	ds, bx
  4602 0000203D 30FF                    	xor	bh, bh
  4603 0000203F 88C3                    	mov	bl, al
  4604 00002041 D1E3                    	shl	bx, 1
  4605 00002043 D1E3                    	shl	bx, 1		; BX = AL * 4
  4606 00002045 8B4702                  	mov	ax, [bx+2]	; Segment
  4607 00002048 8B1F                    	mov	bx, [bx]	; Offset
  4608 0000204A 8EC0                    	mov	es, ax
  4609 0000204C 1F                      	pop	ds
  4610 0000204D 58                      	pop	ax
  4611 0000204E CF                      	iret
  4612                                  
  4613                                  ; --- AH=3C: Create file ---
  4614                                  ; Input: DS:DX = ASCIIZ filename, CX = attributes
  4615                                  ; Output: AX = handle, CF=0 on success
  4616                                  .i21_3c:
  4617 0000204F 53                      	push	bx
  4618 00002050 51                      	push	cx
  4619 00002051 56                      	push	si
  4620 00002052 57                      	push	di
  4621 00002053 06                      	push	es
  4622                                  
  4623 00002054 2E890E[0022]            	mov	[cs:.i21_3c_attr], cx
  4624                                  
  4625                                  	; Find a free handle (start at 5)
  4626 00002059 BB0500                  	mov	bx, 5
  4627                                  .i21_3c_find_handle:
  4628 0000205C 83FB08                  	cmp	bx, MAX_HANDLES
  4629 0000205F 7203E97901              	jae	.i21_3c_no_handle
  4630 00002064 89D8                    	mov	ax, bx
  4631 00002066 53                      	push	bx
  4632 00002067 51                      	push	cx
  4633 00002068 B104                    	mov	cl, 4
  4634 0000206A D3E3                    	shl	bx, cl
  4635 0000206C 2E80BF[703E]00          	cmp	byte [cs:file_handles + bx], 0
  4636 00002072 59                      	pop	cx
  4637 00002073 5B                      	pop	bx
  4638 00002074 7403                    	je	.i21_3c_got_handle
  4639 00002076 43                      	inc	bx
  4640 00002077 EBE3                    	jmp	.i21_3c_find_handle
  4641                                  .i21_3c_got_handle:
  4642 00002079 2E891E[0222]            	mov	[cs:.i21_3c_handle], bx
  4643                                  
  4644                                  	; Copy filename from caller's DS:DX to cmd_buffer
  4645 0000207E 2E8C1E[0422]            	mov	[cs:.i21_3c_ds], ds
  4646 00002083 B80008                  	mov	ax, SHELL_SEG
  4647 00002086 8EC0                    	mov	es, ax
  4648 00002088 BF[9F3C]                	mov	di, cmd_buffer
  4649 0000208B 89D6                    	mov	si, dx
  4650 0000208D B94000                  	mov	cx, 64
  4651                                  .i21_3c_copy:
  4652 00002090 AC                      	lodsb
  4653 00002091 268805                  	mov	[es:di], al
  4654 00002094 47                      	inc	di
  4655 00002095 08C0                    	or	al, al
  4656 00002097 7408                    	jz	.i21_3c_copied
  4657 00002099 49                      	dec	cx
  4658 0000209A 75F4                    	jnz	.i21_3c_copy
  4659 0000209C 26C645FF00              	mov	byte [es:di-1], 0
  4660                                  .i21_3c_copied:
  4661                                  
  4662                                  	; Switch to SHELL_SEG
  4663 000020A1 2E8E1E[0422]            	mov	ds, [cs:.i21_3c_ds]	; Keep caller's DS for now
  4664 000020A6 1E                      	push	ds
  4665 000020A7 B80008                  	mov	ax, SHELL_SEG
  4666 000020AA 8ED8                    	mov	ds, ax
  4667                                  
  4668                                  	; Resolve path
  4669 000020AC BE[9F3C]                	mov	si, cmd_buffer
  4670 000020AF E892F3                  	call	resolve_path
  4671 000020B2 7303E93701              	jc	.i21_3c_err_pop
  4672                                  
  4673                                  	; Read resolved directory
  4674 000020B7 E8A7F4                  	call	read_resolved_dir
  4675 000020BA 7303E92F01              	jc	.i21_3c_err_pop
  4676                                  
  4677                                  	; Check if file already exists — if so, truncate (overwrite)
  4678 000020BF BE0040                  	mov	si, dir_buffer
  4679 000020C2 8B0E[0B3E]              	mov	cx, [resolved_dir_entries]
  4680                                  .i21_3c_check:
  4681 000020C6 8A04                    	mov	al, [si]
  4682 000020C8 3C00                    	cmp	al, 0
  4683 000020CA 741B                    	je	.i21_3c_not_exists
  4684 000020CC 3CE5                    	cmp	al, 0xE5
  4685 000020CE 7411                    	je	.i21_3c_check_next
  4686 000020D0 51                      	push	cx
  4687 000020D1 56                      	push	si
  4688 000020D2 BF[F03C]                	mov	di, exec_fname
  4689 000020D5 B90B00                  	mov	cx, 11
  4690 000020D8 F3A6                    	repe	cmpsb
  4691 000020DA 5E                      	pop	si
  4692 000020DB 59                      	pop	cx
  4693 000020DC 7503E98600              	je	.i21_3c_exists
  4694                                  .i21_3c_check_next:
  4695 000020E1 83C620                  	add	si, 32
  4696 000020E4 49                      	dec	cx
  4697 000020E5 75DF                    	jnz	.i21_3c_check
  4698                                  
  4699                                  .i21_3c_not_exists:
  4700                                  	; Find a free directory entry
  4701 000020E7 BE0040                  	mov	si, dir_buffer
  4702 000020EA 8B0E[0B3E]              	mov	cx, [resolved_dir_entries]
  4703                                  .i21_3c_find_free:
  4704 000020EE 8A04                    	mov	al, [si]
  4705 000020F0 3C00                    	cmp	al, 0
  4706 000020F2 740D                    	je	.i21_3c_free_found
  4707 000020F4 3CE5                    	cmp	al, 0xE5
  4708 000020F6 7409                    	je	.i21_3c_free_found
  4709 000020F8 83C620                  	add	si, 32
  4710 000020FB 49                      	dec	cx
  4711 000020FC 75F0                    	jnz	.i21_3c_find_free
  4712 000020FE E9EE00                  	jmp	.i21_3c_dir_full
  4713                                  
  4714                                  .i21_3c_free_found:
  4715                                  	; Allocate a cluster for the file
  4716 00002101 E8F9F2                  	call	read_fat
  4717 00002104 7303E9E500              	jc	.i21_3c_err_pop
  4718 00002109 B80200                  	mov	ax, 2
  4719                                  .i21_3c_find_cl:
  4720 0000210C 3DD002                  	cmp	ax, 720
  4721 0000210F 7203E9DB00              	jae	.i21_3c_disk_full
  4722 00002114 50                      	push	ax
  4723 00002115 E8E0EC                  	call	fat12_read_cluster
  4724 00002118 83F800                  	cmp	ax, 0
  4725 0000211B 58                      	pop	ax
  4726 0000211C 7403                    	je	.i21_3c_got_cl
  4727 0000211E 40                      	inc	ax
  4728 0000211F EBEB                    	jmp	.i21_3c_find_cl
  4729                                  .i21_3c_got_cl:
  4730 00002121 2EA3[0622]              	mov	[cs:.i21_3c_cluster], ax
  4731                                  	; Mark cluster as EOF
  4732 00002125 BBFF0F                  	mov	bx, 0xFFF
  4733 00002128 E8F8EC                  	call	fat12_write_cluster
  4734 0000212B E8E8F2                  	call	write_fat
  4735 0000212E 7303E9BB00              	jc	.i21_3c_err_pop
  4736                                  
  4737                                  	; Create directory entry
  4738                                  	; SI still points to the free slot
  4739 00002133 89F7                    	mov	di, si
  4740 00002135 BE[F03C]                	mov	si, exec_fname
  4741 00002138 B90B00                  	mov	cx, 11
  4742 0000213B F3A4                    	rep	movsb			; Filename
  4743 0000213D 2EA1[0022]              	mov	ax, [cs:.i21_3c_attr]
  4744 00002141 8805                    	mov	byte [di], al		; Attribute
  4745 00002143 47                      	inc	di
  4746 00002144 B90E00                  	mov	cx, 14
  4747 00002147 30C0                    	xor	al, al
  4748 00002149 F3AA                    	rep	stosb			; Zero times/dates
  4749 0000214B 2EA1[0622]              	mov	ax, [cs:.i21_3c_cluster]
  4750 0000214F 8905                    	mov	[di], ax		; Starting cluster
  4751 00002151 83C702                  	add	di, 2
  4752 00002154 31C0                    	xor	ax, ax
  4753 00002156 8905                    	mov	[di], ax		; File size = 0
  4754 00002158 83C702                  	add	di, 2
  4755 0000215B 8905                    	mov	[di], ax
  4756                                  
  4757                                  	; Write directory back
  4758 0000215D E83AF4                  	call	write_resolved_dir
  4759 00002160 7303E98900              	jc	.i21_3c_err_pop
  4760 00002165 EB16                    	jmp	.i21_3c_setup_handle
  4761                                  
  4762                                  .i21_3c_exists:
  4763                                  	; File exists — truncate to 0 (reuse its cluster)
  4764 00002167 8B441A                  	mov	ax, [si+26]		; Existing start cluster
  4765 0000216A 2EA3[0622]              	mov	[cs:.i21_3c_cluster], ax
  4766                                  	; Set file size to 0
  4767 0000216E C7441C0000              	mov	word [si+28], 0
  4768 00002173 C7441E0000              	mov	word [si+30], 0
  4769 00002178 E81FF4                  	call	write_resolved_dir
  4770 0000217B 7271                    	jc	.i21_3c_err_pop
  4771                                  
  4772                                  .i21_3c_setup_handle:
  4773                                  	; Fill handle entry
  4774 0000217D 2E8B1E[0222]            	mov	bx, [cs:.i21_3c_handle]
  4775 00002182 89D8                    	mov	ax, bx
  4776 00002184 B104                    	mov	cl, 4
  4777 00002186 D3E0                    	shl	ax, cl
  4778 00002188 89C7                    	mov	di, ax
  4779                                  
  4780 0000218A 2EC685[703E]02          	mov	byte [cs:file_handles + di], 2	; Open for write
  4781 00002190 2EA0[0D3E]              	mov	al, [cs:resolved_drive]
  4782 00002194 2E8885[713E]            	mov	[cs:file_handles + di + 1], al
  4783 00002199 2EA1[0622]              	mov	ax, [cs:.i21_3c_cluster]
  4784 0000219D 2E8985[723E]            	mov	[cs:file_handles + di + 2], ax	; Start cluster
  4785 000021A2 2E8985[743E]            	mov	[cs:file_handles + di + 4], ax	; Current cluster
  4786 000021A7 2EC785[763E]0000        	mov	word [cs:file_handles + di + 6], 0  ; Cluster position
  4787 000021AE 2EC785[783E]0000        	mov	word [cs:file_handles + di + 8], 0  ; File pointer
  4788 000021B5 2EC785[7A3E]0000        	mov	word [cs:file_handles + di + 10], 0
  4789 000021BC 2EC785[7C3E]0000        	mov	word [cs:file_handles + di + 12], 0 ; File size = 0
  4790 000021C3 2EC785[7E3E]0000        	mov	word [cs:file_handles + di + 14], 0
  4791                                  
  4792 000021CA 1F                      	pop	ds			; Restore caller's DS
  4793 000021CB 2EA1[0222]              	mov	ax, [cs:.i21_3c_handle]
  4794 000021CF 07                      	pop	es
  4795 000021D0 5F                      	pop	di
  4796 000021D1 5E                      	pop	si
  4797 000021D2 59                      	pop	cx
  4798 000021D3 5B                      	pop	bx
  4799 000021D4 55                      	push	bp
  4800 000021D5 89E5                    	mov	bp, sp
  4801 000021D7 836606FE                	and	word [bp+6], 0xFFFE
  4802 000021DB 5D                      	pop	bp
  4803 000021DC CF                      	iret
  4804                                  
  4805                                  .i21_3c_no_handle:
  4806 000021DD B80400                  	mov	ax, 4
  4807 000021E0 07                      	pop	es
  4808 000021E1 5F                      	pop	di
  4809 000021E2 5E                      	pop	si
  4810 000021E3 59                      	pop	cx
  4811 000021E4 5B                      	pop	bx
  4812 000021E5 55                      	push	bp
  4813 000021E6 89E5                    	mov	bp, sp
  4814 000021E8 834E0601                	or	word [bp+6], 0x0001
  4815 000021EC 5D                      	pop	bp
  4816 000021ED CF                      	iret
  4817                                  
  4818                                  .i21_3c_err_pop:
  4819 000021EE 1F                      	pop	ds
  4820                                  .i21_3c_disk_full:
  4821                                  .i21_3c_dir_full:
  4822 000021EF 07                      	pop	es
  4823 000021F0 5F                      	pop	di
  4824 000021F1 5E                      	pop	si
  4825 000021F2 59                      	pop	cx
  4826 000021F3 5B                      	pop	bx
  4827 000021F4 B80500                  	mov	ax, 5
  4828 000021F7 55                      	push	bp
  4829 000021F8 89E5                    	mov	bp, sp
  4830 000021FA 834E0601                	or	word [bp+6], 0x0001
  4831 000021FE 5D                      	pop	bp
  4832 000021FF CF                      	iret
  4833                                  
  4834 00002200 0000                    .i21_3c_attr	dw	0
  4835 00002202 0000                    .i21_3c_handle	dw	0
  4836 00002204 0000                    .i21_3c_ds	dw	0
  4837 00002206 0000                    .i21_3c_cluster	dw	0
  4838                                  
  4839                                  ; --- AH=3D: Open file ---
  4840                                  ; Input: DS:DX = ASCIIZ filename, AL = access mode (0=read, 1=write, 2=r/w)
  4841                                  ; Output: AX = handle, CF=0 on success
  4842                                  .i21_3d:
  4843 00002208 53                      	push	bx
  4844 00002209 51                      	push	cx
  4845 0000220A 56                      	push	si
  4846 0000220B 57                      	push	di
  4847 0000220C 06                      	push	es
  4848                                  
  4849 0000220D 2EA2[0F23]              	mov	[cs:.i21_3d_mode], al	; Save access mode
  4850                                  
  4851                                  	; Find a free handle (start at 5)
  4852 00002211 BB0500                  	mov	bx, 5
  4853                                  .i21_3d_find_handle:
  4854 00002214 83FB08                  	cmp	bx, MAX_HANDLES
  4855 00002217 7203E9F800              	jae	.i21_3d_no_handle
  4856 0000221C 89D8                    	mov	ax, bx
  4857 0000221E 53                      	push	bx
  4858 0000221F B104                    	mov	cl, 4			; * 16 = FH_SIZE
  4859 00002221 D3E3                    	shl	bx, cl
  4860 00002223 2E80BF[703E]00          	cmp	byte [cs:file_handles + bx], 0	; Closed?
  4861 00002229 5B                      	pop	bx
  4862 0000222A 7403                    	je	.i21_3d_got_handle
  4863 0000222C 43                      	inc	bx
  4864 0000222D EBE5                    	jmp	.i21_3d_find_handle
  4865                                  
  4866                                  .i21_3d_got_handle:
  4867 0000222F 2E891E[1023]            	mov	[cs:.i21_3d_handle], bx
  4868                                  
  4869                                  	; Parse filename from DS:DX using resolve_path
  4870                                  	; Save DS (caller's segment)
  4871 00002234 2E8C1E[1223]            	mov	[cs:.i21_3d_ds], ds
  4872 00002239 53                      	push	bx
  4873                                  
  4874                                  	; Set DS to SHELL_SEG for resolve_path
  4875 0000223A B80008                  	mov	ax, SHELL_SEG
  4876 0000223D 8ED8                    	mov	ds, ax
  4877                                  
  4878                                  	; Copy filename from caller's DS:DX to cmd_buffer
  4879 0000223F 8EC0                    	mov	es, ax			; ES = SHELL_SEG
  4880 00002241 BF[9F3C]                	mov	di, cmd_buffer
  4881 00002244 1E                      	push	ds
  4882 00002245 2E8E1E[1223]            	mov	ds, [cs:.i21_3d_ds]
  4883 0000224A 89D6                    	mov	si, dx
  4884 0000224C B94000                  	mov	cx, 64
  4885                                  .i21_3d_copy_name:
  4886 0000224F AC                      	lodsb
  4887 00002250 AA                      	stosb
  4888 00002251 08C0                    	or	al, al
  4889 00002253 7408                    	jz	.i21_3d_name_done
  4890 00002255 49                      	dec	cx
  4891 00002256 75F7                    	jnz	.i21_3d_copy_name
  4892 00002258 26C645FF00              	mov	byte [es:di-1], 0
  4893                                  .i21_3d_name_done:
  4894 0000225D 1F                      	pop	ds			; DS = SHELL_SEG again
  4895                                  
  4896 0000225E BE[9F3C]                	mov	si, cmd_buffer
  4897 00002261 E8E0F1                  	call	resolve_path
  4898 00002264 722A                    	jc	.i21_3d_not_found
  4899                                  
  4900                                  	; Read directory
  4901 00002266 E8F8F2                  	call	read_resolved_dir
  4902 00002269 7225                    	jc	.i21_3d_not_found
  4903                                  
  4904                                  	; Search for file
  4905 0000226B BE0040                  	mov	si, dir_buffer
  4906 0000226E 8B0E[0B3E]              	mov	cx, [resolved_dir_entries]
  4907                                  .i21_3d_search:
  4908 00002272 8A04                    	mov	al, [si]
  4909 00002274 3C00                    	cmp	al, 0
  4910 00002276 7418                    	je	.i21_3d_not_found
  4911 00002278 3CE5                    	cmp	al, 0xE5
  4912 0000227A 740E                    	je	.i21_3d_search_next
  4913 0000227C 51                      	push	cx
  4914 0000227D 56                      	push	si
  4915 0000227E BF[F03C]                	mov	di, exec_fname
  4916 00002281 B90B00                  	mov	cx, 11
  4917 00002284 F3A6                    	repe	cmpsb
  4918 00002286 5E                      	pop	si
  4919 00002287 59                      	pop	cx
  4920 00002288 741D                    	je	.i21_3d_found
  4921                                  .i21_3d_search_next:
  4922 0000228A 83C620                  	add	si, 32
  4923 0000228D 49                      	dec	cx
  4924 0000228E 75E2                    	jnz	.i21_3d_search
  4925                                  
  4926                                  .i21_3d_not_found:
  4927 00002290 5B                      	pop	bx
  4928 00002291 2E8E1E[1223]            	mov	ds, [cs:.i21_3d_ds]
  4929 00002296 07                      	pop	es
  4930 00002297 5F                      	pop	di
  4931 00002298 5E                      	pop	si
  4932 00002299 59                      	pop	cx
  4933 0000229A 5B                      	pop	bx
  4934 0000229B B80200                  	mov	ax, 2			; File not found
  4935 0000229E 55                      	push	bp
  4936 0000229F 89E5                    	mov	bp, sp
  4937 000022A1 834E0601                	or	word [bp+6], 0x0001
  4938 000022A5 5D                      	pop	bp
  4939 000022A6 CF                      	iret
  4940                                  
  4941                                  .i21_3d_found:
  4942                                  	; Fill handle entry
  4943 000022A7 5B                      	pop	bx			; Handle number
  4944 000022A8 53                      	push	bx
  4945 000022A9 89D8                    	mov	ax, bx
  4946 000022AB B104                    	mov	cl, 4
  4947 000022AD D3E0                    	shl	ax, cl
  4948 000022AF 89C7                    	mov	di, ax			; DI = handle table offset
  4949                                  
  4950                                  	; Flags
  4951 000022B1 2EA0[0F23]              	mov	al, [cs:.i21_3d_mode]
  4952 000022B5 FEC0                    	inc	al			; 0→1(read), 1→2(write), 2→3(r/w)
  4953 000022B7 2E8885[703E]            	mov	[cs:file_handles + di], al
  4954                                  	; Drive
  4955 000022BC A0[0D3E]                	mov	al, [resolved_drive]
  4956 000022BF 2E8885[713E]            	mov	[cs:file_handles + di + 1], al
  4957                                  	; Start cluster
  4958 000022C4 8B441A                  	mov	ax, [si+26]
  4959 000022C7 2E8985[723E]            	mov	[cs:file_handles + di + 2], ax
  4960                                  	; Current cluster = start cluster
  4961 000022CC 2E8985[743E]            	mov	[cs:file_handles + di + 4], ax
  4962                                  	; Position in cluster = 0
  4963 000022D1 2EC785[763E]0000        	mov	word [cs:file_handles + di + 6], 0
  4964                                  	; File pointer = 0
  4965 000022D8 2EC785[783E]0000        	mov	word [cs:file_handles + di + 8], 0
  4966 000022DF 2EC785[7A3E]0000        	mov	word [cs:file_handles + di + 10], 0
  4967                                  	; File size
  4968 000022E6 8B441C                  	mov	ax, [si+28]
  4969 000022E9 2E8985[7C3E]            	mov	[cs:file_handles + di + 12], ax
  4970 000022EE 8B441E                  	mov	ax, [si+30]
  4971 000022F1 2E8985[7E3E]            	mov	[cs:file_handles + di + 14], ax
  4972                                  
  4973                                  	; Load FAT (needed for cluster chain traversal)
  4974 000022F6 E804F1                  	call	read_fat
  4975                                  
  4976 000022F9 5B                      	pop	bx			; Handle number
  4977 000022FA 89D8                    	mov	ax, bx			; Return handle in AX
  4978                                  
  4979 000022FC 2E8E1E[1223]            	mov	ds, [cs:.i21_3d_ds]
  4980 00002301 07                      	pop	es
  4981 00002302 5F                      	pop	di
  4982 00002303 5E                      	pop	si
  4983 00002304 59                      	pop	cx
  4984 00002305 5B                      	pop	bx
  4985 00002306 55                      	push	bp
  4986 00002307 89E5                    	mov	bp, sp
  4987 00002309 836606FE                	and	word [bp+6], 0xFFFE	; Clear CF
  4988 0000230D 5D                      	pop	bp
  4989 0000230E CF                      	iret
  4990                                  
  4991 0000230F 00                      .i21_3d_mode	db	0
  4992 00002310 0000                    .i21_3d_handle	dw	0
  4993 00002312 0000                    .i21_3d_ds	dw	0
  4994                                  .i21_3d_no_handle:
  4995 00002314 5B                      	pop	bx
  4996 00002315 07                      	pop	es
  4997 00002316 5F                      	pop	di
  4998 00002317 5E                      	pop	si
  4999 00002318 59                      	pop	cx
  5000 00002319 5B                      	pop	bx
  5001 0000231A B80400                  	mov	ax, 4			; Too many open files
  5002 0000231D 55                      	push	bp
  5003 0000231E 89E5                    	mov	bp, sp
  5004 00002320 834E0601                	or	word [bp+6], 0x0001
  5005 00002324 5D                      	pop	bp
  5006 00002325 CF                      	iret
  5007                                  
  5008                                  ; --- AH=3E: Close file ---
  5009                                  ; Input: BX = handle
  5010                                  .i21_3e:
  5011 00002326 83FB08                  	cmp	bx, MAX_HANDLES
  5012 00002329 7203E98300              	jae	.i21_3e_bad
  5013 0000232E 83FB05                  	cmp	bx, 5
  5014 00002331 7275                    	jb	.i21_3e_ok
  5015 00002333 50                      	push	ax
  5016 00002334 51                      	push	cx
  5017 00002335 56                      	push	si
  5018 00002336 57                      	push	di
  5019 00002337 1E                      	push	ds
  5020 00002338 06                      	push	es
  5021                                  
  5022 00002339 89D8                    	mov	ax, bx
  5023 0000233B B104                    	mov	cl, 4
  5024 0000233D D3E0                    	shl	ax, cl
  5025 0000233F 89C6                    	mov	si, ax			; SI = handle offset
  5026                                  
  5027                                  	; Check if file was opened for write — update directory with file size
  5028 00002341 2E80BC[703E]02          	cmp	byte [cs:file_handles + si], 2
  5029 00002347 7253                    	jb	.i21_3e_just_close	; Read-only, no update needed
  5030                                  
  5031                                  	; Read the directory to find and update the file entry
  5032 00002349 B80008                  	mov	ax, SHELL_SEG
  5033 0000234C 8ED8                    	mov	ds, ax
  5034 0000234E 2E8A84[713E]            	mov	al, [cs:file_handles + si + 1]
  5035 00002353 A2[0D3E]                	mov	[resolved_drive], al
  5036                                  	; For simplicity, re-read root directory and search for the file by cluster
  5037 00002356 C706[093E]0000          	mov	word [resolved_dir_cluster], 0
  5038 0000235C C706[0B3E]7000          	mov	word [resolved_dir_entries], MAX_DIR_ENTRIES
  5039 00002362 E8FCF1                  	call	read_resolved_dir
  5040 00002365 7235                    	jc	.i21_3e_just_close
  5041                                  
  5042                                  	; Search for entry with matching start cluster
  5043 00002367 BF0040                  	mov	di, dir_buffer
  5044 0000236A B97000                  	mov	cx, MAX_DIR_ENTRIES
  5045 0000236D 2E8B84[723E]            	mov	ax, [cs:file_handles + si + 2]	; Start cluster
  5046                                  .i21_3e_search:
  5047 00002372 803D00                  	cmp	byte [di], 0
  5048 00002375 7425                    	je	.i21_3e_just_close
  5049 00002377 803DE5                  	cmp	byte [di], 0xE5
  5050 0000237A 7405                    	je	.i21_3e_next
  5051 0000237C 39451A                  	cmp	[di+26], ax
  5052 0000237F 7408                    	je	.i21_3e_found
  5053                                  .i21_3e_next:
  5054 00002381 83C720                  	add	di, 32
  5055 00002384 49                      	dec	cx
  5056 00002385 75EB                    	jnz	.i21_3e_search
  5057 00002387 EB13                    	jmp	.i21_3e_just_close
  5058                                  
  5059                                  .i21_3e_found:
  5060                                  	; Update file size in directory entry from file pointer
  5061 00002389 2E8B84[783E]            	mov	ax, [cs:file_handles + si + 8]	; File pointer = actual bytes written
  5062 0000238E 89451C                  	mov	[di+28], ax
  5063 00002391 2E8B84[7A3E]            	mov	ax, [cs:file_handles + si + 10]
  5064 00002396 89451E                  	mov	[di+30], ax
  5065 00002399 E8FEF1                  	call	write_resolved_dir
  5066                                  
  5067                                  .i21_3e_just_close:
  5068 0000239C 2EC684[703E]00          	mov	byte [cs:file_handles + si], 0	; Mark closed
  5069                                  
  5070 000023A2 07                      	pop	es
  5071 000023A3 1F                      	pop	ds
  5072 000023A4 5F                      	pop	di
  5073 000023A5 5E                      	pop	si
  5074 000023A6 59                      	pop	cx
  5075 000023A7 58                      	pop	ax
  5076                                  .i21_3e_ok:
  5077 000023A8 55                      	push	bp
  5078 000023A9 89E5                    	mov	bp, sp
  5079 000023AB 836606FE                	and	word [bp+6], 0xFFFE
  5080 000023AF 5D                      	pop	bp
  5081 000023B0 CF                      	iret
  5082                                  .i21_3e_bad:
  5083 000023B1 B80600                  	mov	ax, 6			; Invalid handle
  5084 000023B4 55                      	push	bp
  5085 000023B5 89E5                    	mov	bp, sp
  5086 000023B7 834E0601                	or	word [bp+6], 0x0001
  5087 000023BB 5D                      	pop	bp
  5088 000023BC CF                      	iret
  5089                                  
  5090                                  ; --- AH=3F: Read from file ---
  5091                                  ; Input: BX = handle, CX = bytes to read, DS:DX = buffer
  5092                                  ; Output: AX = bytes actually read, CF=0
  5093                                  .i21_3f:
  5094                                  	; Check for device handles (stdin)
  5095 000023BD 83FB00                  	cmp	bx, 0
  5096 000023C0 7503E91D01              	je	.i21_3f_stdin
  5097 000023C5 83FB08                  	cmp	bx, MAX_HANDLES
  5098 000023C8 7203E93501              	jae	.i21_3f_bad
  5099                                  
  5100 000023CD 56                      	push	si
  5101 000023CE 57                      	push	di
  5102 000023CF 06                      	push	es
  5103                                  
  5104                                  	; Get handle entry
  5105 000023D0 89D8                    	mov	ax, bx
  5106 000023D2 51                      	push	cx
  5107 000023D3 B104                    	mov	cl, 4
  5108 000023D5 D3E0                    	shl	ax, cl
  5109 000023D7 59                      	pop	cx
  5110 000023D8 89C6                    	mov	si, ax			; SI = handle table offset
  5111                                  
  5112                                  	; Check handle is open
  5113 000023DA 2E80BC[703E]00          	cmp	byte [cs:file_handles + si], 0
  5114 000023E0 7503E91A01              	je	.i21_3f_bad_pop
  5115                                  
  5116                                  	; Save caller's DS:DX
  5117 000023E5 2E8C1E[0E25]            	mov	[cs:.i21_3f_ds], ds
  5118 000023EA 2E8916[1025]            	mov	[cs:.i21_3f_dx], dx
  5119 000023EF 2E890E[1225]            	mov	[cs:.i21_3f_cx], cx
  5120                                  
  5121                                  	; Switch to SHELL_SEG for FAT/disk access
  5122 000023F4 B80008                  	mov	ax, SHELL_SEG
  5123 000023F7 8ED8                    	mov	ds, ax
  5124                                  
  5125                                  	; How many bytes left in file?
  5126 000023F9 2E8B84[7C3E]            	mov	ax, [cs:file_handles + si + 12]	; File size low
  5127 000023FE 2E8B94[7E3E]            	mov	dx, [cs:file_handles + si + 14]	; File size high
  5128 00002403 2E2B84[783E]            	sub	ax, [cs:file_handles + si + 8]	; Subtract file pointer low
  5129 00002408 2E1B94[7A3E]            	sbb	dx, [cs:file_handles + si + 10]	; Subtract file pointer high
  5130                                  	; DX:AX = bytes remaining
  5131                                  	; Cap CX to bytes remaining
  5132 0000240D 09D2                    	or	dx, dx
  5133 0000240F 750B                    	jnz	.i21_3f_cx_ok		; More than 64K remaining
  5134 00002411 2E3B06[1225]            	cmp	ax, [cs:.i21_3f_cx]
  5135 00002416 7304                    	jae	.i21_3f_cx_ok
  5136 00002418 2EA3[1225]              	mov	[cs:.i21_3f_cx], ax	; Reduce to remaining
  5137                                  .i21_3f_cx_ok:
  5138                                  
  5139                                  	; Read loop: read from current cluster, advance
  5140 0000241C 2EC706[1425]0000        	mov	word [cs:.i21_3f_read], 0	; Bytes read so far
  5141                                  
  5142                                  	; Load FAT for cluster chain traversal
  5143 00002423 56                      	push	si
  5144 00002424 E8D6EF                  	call	read_fat
  5145 00002427 5E                      	pop	si
  5146                                  
  5147                                  	; Load byte count AFTER read_fat (which clobbers CX)
  5148 00002428 2E8B0E[1225]            	mov	cx, [cs:.i21_3f_cx]
  5149                                  
  5150                                  .i21_3f_read_loop:
  5151 0000242D 83F900                  	cmp	cx, 0
  5152 00002430 7503E99800              	je	.i21_3f_done
  5153                                  
  5154                                  	; Read current cluster into dir_buffer
  5155 00002435 2E8B84[743E]            	mov	ax, [cs:file_handles + si + 4]	; Current cluster
  5156 0000243A 83F800                  	cmp	ax, 0
  5157 0000243D 7503E98B00              	je	.i21_3f_done
  5158 00002442 3DF80F                  	cmp	ax, 0xFF8
  5159 00002445 7203E98300              	jae	.i21_3f_done
  5160                                  
  5161 0000244A 2E8A84[713E]            	mov	al, [cs:file_handles + si + 1]	; Drive
  5162 0000244F A2[0D3E]                	mov	[resolved_drive], al
  5163 00002452 2E8B84[743E]            	mov	ax, [cs:file_handles + si + 4]
  5164 00002457 E878E9                  	call	cluster_to_chs
  5165 0000245A B80008                  	mov	ax, SHELL_SEG
  5166 0000245D 8EC0                    	mov	es, ax
  5167 0000245F BB0040                  	mov	bx, dir_buffer
  5168 00002462 B402                    	mov	ah, 0x02
  5169 00002464 B002                    	mov	al, SECS_PER_CLUST
  5170 00002466 8A16[0D3E]              	mov	dl, [resolved_drive]
  5171 0000246A 56                      	push	si			; INT 13h may clobber SI
  5172 0000246B CD13                    	int	0x13
  5173 0000246D 5E                      	pop	si
  5174 0000246E 725D                    	jc	.i21_3f_done
  5175                                  
  5176                                  	; Copy bytes from dir_buffer + cluster_offset to caller's buffer
  5177 00002470 2E8B9C[763E]            	mov	bx, [cs:file_handles + si + 6]	; Position in cluster
  5178 00002475 2E8B3E[1025]            	mov	di, [cs:.i21_3f_dx]	; Dest offset in caller's buffer
  5179                                  
  5180                                  .i21_3f_copy:
  5181 0000247A 83F900                  	cmp	cx, 0
  5182 0000247D 7444                    	je	.i21_3f_advance_done
  5183 0000247F 81FB0004                	cmp	bx, SECS_PER_CLUST * 512
  5184 00002483 7324                    	jae	.i21_3f_next_cluster
  5185                                  
  5186                                  	; Copy one byte
  5187 00002485 8A870040                	mov	al, [dir_buffer + bx]
  5188 00002489 06                      	push	es
  5189 0000248A 2E8E06[0E25]            	mov	es, [cs:.i21_3f_ds]
  5190 0000248F 268805                  	mov	[es:di], al
  5191 00002492 07                      	pop	es
  5192 00002493 43                      	inc	bx
  5193 00002494 47                      	inc	di
  5194 00002495 49                      	dec	cx
  5195 00002496 2EFF06[1425]            	inc	word [cs:.i21_3f_read]
  5196                                  	; Advance file pointer
  5197 0000249B 2E8384[783E]01          	add	word [cs:file_handles + si + 8], 1
  5198 000024A1 2E8394[7A3E]00          	adc	word [cs:file_handles + si + 10], 0
  5199 000024A7 EBD1                    	jmp	.i21_3f_copy
  5200                                  
  5201                                  .i21_3f_next_cluster:
  5202                                  	; Move to next cluster in chain
  5203 000024A9 2E8B84[743E]            	mov	ax, [cs:file_handles + si + 4]
  5204 000024AE E84AF8                  	call	fat12_next_cluster
  5205 000024B1 2E8984[743E]            	mov	[cs:file_handles + si + 4], ax
  5206 000024B6 2EC784[763E]0000        	mov	word [cs:file_handles + si + 6], 0
  5207 000024BD BB0000                  	mov	bx, 0
  5208 000024C0 E96AFF                  	jmp	.i21_3f_read_loop
  5209                                  
  5210                                  .i21_3f_advance_done:
  5211 000024C3 2E899C[763E]            	mov	[cs:file_handles + si + 6], bx	; Save cluster position
  5212 000024C8 2E893E[1025]            	mov	[cs:.i21_3f_dx], di		; Update buffer position
  5213                                  
  5214                                  .i21_3f_done:
  5215 000024CD 2E8E1E[0E25]            	mov	ds, [cs:.i21_3f_ds]
  5216 000024D2 2EA1[1425]              	mov	ax, [cs:.i21_3f_read]
  5217 000024D6 07                      	pop	es
  5218 000024D7 5F                      	pop	di
  5219 000024D8 5E                      	pop	si
  5220 000024D9 55                      	push	bp
  5221 000024DA 89E5                    	mov	bp, sp
  5222 000024DC 836606FE                	and	word [bp+6], 0xFFFE
  5223 000024E0 5D                      	pop	bp
  5224 000024E1 CF                      	iret
  5225                                  
  5226                                  .i21_3f_stdin:
  5227                                  	; Read from keyboard (one char at a time)
  5228 000024E2 53                      	push	bx
  5229 000024E3 89D3                    	mov	bx, dx			; DS:BX = buffer
  5230 000024E5 31C0                    	xor	ax, ax
  5231                                  .i21_3f_stdin_loop:
  5232 000024E7 39C8                    	cmp	ax, cx
  5233 000024E9 7D0A                    	jge	.i21_3f_stdin_done
  5234 000024EB 50                      	push	ax
  5235 000024EC 51                      	push	cx
  5236 000024ED B400                    	mov	ah, 0x00
  5237 000024EF CD16                    	int	0x16
  5238 000024F1 59                      	pop	cx
  5239 000024F2 58                      	pop	ax			; AX was interrupted, but we pushed it
  5240                                  	; Actually this is wrong — let me simplify
  5241 000024F3 EB00                    	jmp	.i21_3f_stdin_done
  5242                                  .i21_3f_stdin_done:
  5243 000024F5 5B                      	pop	bx
  5244 000024F6 55                      	push	bp
  5245 000024F7 89E5                    	mov	bp, sp
  5246 000024F9 836606FE                	and	word [bp+6], 0xFFFE
  5247 000024FD 5D                      	pop	bp
  5248 000024FE CF                      	iret
  5249                                  
  5250                                  .i21_3f_bad_pop:
  5251 000024FF 07                      	pop	es
  5252 00002500 5F                      	pop	di
  5253 00002501 5E                      	pop	si
  5254                                  .i21_3f_bad:
  5255 00002502 B80600                  	mov	ax, 6
  5256 00002505 55                      	push	bp
  5257 00002506 89E5                    	mov	bp, sp
  5258 00002508 834E0601                	or	word [bp+6], 0x0001
  5259 0000250C 5D                      	pop	bp
  5260 0000250D CF                      	iret
  5261                                  
  5262 0000250E 0000                    .i21_3f_ds	dw	0
  5263 00002510 0000                    .i21_3f_dx	dw	0
  5264 00002512 0000                    .i21_3f_cx	dw	0
  5265 00002514 0000                    .i21_3f_read	dw	0
  5266                                  
  5267                                  ; --- AH=40: Write to file/device ---
  5268                                  ; Input: BX = handle, CX = bytes, DS:DX = buffer
  5269                                  ; Output: AX = bytes written
  5270                                  .i21_40:
  5271                                  	; Handle stdout/stderr — print to screen
  5272 00002516 83FB01                  	cmp	bx, 1
  5273 00002519 7503E98301              	je	.i21_40_stdout
  5274 0000251E 83FB02                  	cmp	bx, 2
  5275 00002521 7503E97B01              	je	.i21_40_stdout
  5276 00002526 83FB08                  	cmp	bx, MAX_HANDLES
  5277 00002529 7203E96701              	jae	.i21_40_bad
  5278                                  
  5279                                  	; File write
  5280 0000252E 56                      	push	si
  5281 0000252F 57                      	push	di
  5282 00002530 06                      	push	es
  5283                                  
  5284 00002531 89D8                    	mov	ax, bx
  5285 00002533 51                      	push	cx
  5286 00002534 B104                    	mov	cl, 4
  5287 00002536 D3E0                    	shl	ax, cl
  5288 00002538 59                      	pop	cx
  5289 00002539 89C6                    	mov	si, ax			; SI = handle table offset
  5290                                  
  5291 0000253B 2E80BC[703E]00          	cmp	byte [cs:file_handles + si], 0
  5292 00002541 7503E94C01              	je	.i21_40_bad_pop
  5293                                  
  5294                                  	; Save caller state
  5295 00002546 2E8C1E[C826]            	mov	[cs:.i21_40_ds], ds
  5296 0000254B 2E8916[CA26]            	mov	[cs:.i21_40_dx], dx
  5297 00002550 2E890E[CC26]            	mov	[cs:.i21_40_cx], cx
  5298 00002555 2EC706[CE26]0000        	mov	word [cs:.i21_40_written], 0
  5299                                  
  5300                                  	; Switch to SHELL_SEG
  5301 0000255C B80008                  	mov	ax, SHELL_SEG
  5302 0000255F 8ED8                    	mov	ds, ax
  5303                                  
  5304                                  	; Load FAT
  5305 00002561 E899EE                  	call	read_fat
  5306                                  
  5307 00002564 2E8B0E[CC26]            	mov	cx, [cs:.i21_40_cx]
  5308                                  
  5309                                  .i21_40_write_loop:
  5310 00002569 83F900                  	cmp	cx, 0
  5311 0000256C 7503E90C01              	je	.i21_40_write_done
  5312                                  
  5313                                  	; Read current cluster into dir_buffer (so we can modify it)
  5314 00002571 2E8B84[743E]            	mov	ax, [cs:file_handles + si + 4]
  5315 00002576 83F800                  	cmp	ax, 0
  5316 00002579 7503E9FF00              	je	.i21_40_write_done
  5317 0000257E 3DF80F                  	cmp	ax, 0xFF8
  5318 00002581 7203E98D00              	jae	.i21_40_need_cluster
  5319                                  
  5320 00002586 2E8A84[713E]            	mov	al, [cs:file_handles + si + 1]
  5321 0000258B A2[0D3E]                	mov	[resolved_drive], al
  5322 0000258E 2E8B84[743E]            	mov	ax, [cs:file_handles + si + 4]
  5323 00002593 51                      	push	cx			; Save byte count BEFORE cluster_to_chs trashes CX
  5324 00002594 E83BE8                  	call	cluster_to_chs
  5325 00002597 B80008                  	mov	ax, SHELL_SEG
  5326 0000259A 8EC0                    	mov	es, ax
  5327 0000259C BB0040                  	mov	bx, dir_buffer
  5328 0000259F B402                    	mov	ah, 0x02
  5329 000025A1 B002                    	mov	al, SECS_PER_CLUST
  5330 000025A3 8A16[0D3E]              	mov	dl, [resolved_drive]
  5331 000025A7 CD13                    	int	0x13
  5332 000025A9 59                      	pop	cx			; Restore byte count
  5333 000025AA 7303E9CE00              	jc	.i21_40_write_done
  5334                                  
  5335                                  	; Copy bytes from caller's buffer into dir_buffer
  5336 000025AF 2E8B9C[763E]            	mov	bx, [cs:file_handles + si + 6]	; Position in cluster
  5337 000025B4 2E8B3E[CA26]            	mov	di, [cs:.i21_40_dx]
  5338                                  
  5339                                  .i21_40_copy:
  5340 000025B9 83F900                  	cmp	cx, 0
  5341 000025BC 7503E99100              	je	.i21_40_flush
  5342 000025C1 81FB0004                	cmp	bx, SECS_PER_CLUST * 512
  5343 000025C5 7324                    	jae	.i21_40_flush_next
  5344                                  
  5345                                  	; Copy one byte from caller to cluster buffer
  5346 000025C7 06                      	push	es
  5347 000025C8 2E8E06[C826]            	mov	es, [cs:.i21_40_ds]
  5348 000025CD 268A05                  	mov	al, [es:di]
  5349 000025D0 07                      	pop	es
  5350 000025D1 88870040                	mov	[dir_buffer + bx], al
  5351 000025D5 43                      	inc	bx
  5352 000025D6 47                      	inc	di
  5353 000025D7 49                      	dec	cx
  5354 000025D8 2EFF06[CE26]            	inc	word [cs:.i21_40_written]
  5355                                  	; Advance file pointer
  5356 000025DD 2E8384[783E]01          	add	word [cs:file_handles + si + 8], 1
  5357 000025E3 2E8394[7A3E]00          	adc	word [cs:file_handles + si + 10], 0
  5358 000025E9 EBCE                    	jmp	.i21_40_copy
  5359                                  
  5360                                  .i21_40_flush_next:
  5361                                  	; Write current cluster back, then get next
  5362 000025EB 2E899C[763E]            	mov	[cs:file_handles + si + 6], bx
  5363 000025F0 2E893E[CA26]            	mov	[cs:.i21_40_dx], di
  5364                                  
  5365                                  	; Write cluster
  5366 000025F5 2E8B84[743E]            	mov	ax, [cs:file_handles + si + 4]
  5367 000025FA 51                      	push	cx			; Save byte count
  5368 000025FB E8D4E7                  	call	cluster_to_chs
  5369 000025FE B80008                  	mov	ax, SHELL_SEG
  5370 00002601 8EC0                    	mov	es, ax
  5371 00002603 BB0040                  	mov	bx, dir_buffer
  5372 00002606 B403                    	mov	ah, 0x03
  5373 00002608 B002                    	mov	al, SECS_PER_CLUST
  5374 0000260A 8A16[0D3E]              	mov	dl, [resolved_drive]
  5375 0000260E CD13                    	int	0x13
  5376 00002610 59                      	pop	cx
  5377 00002611 726A                    	jc	.i21_40_write_done
  5378                                  
  5379                                  	; Allocate next cluster
  5380                                  .i21_40_need_cluster:
  5381 00002613 51                      	push	cx
  5382 00002614 B80200                  	mov	ax, 2
  5383                                  .i21_40_find_cl:
  5384 00002617 3DD002                  	cmp	ax, 720
  5385 0000261A 7335                    	jae	.i21_40_full
  5386 0000261C 50                      	push	ax
  5387 0000261D E8D8E7                  	call	fat12_read_cluster
  5388 00002620 83F800                  	cmp	ax, 0
  5389 00002623 58                      	pop	ax
  5390 00002624 7403                    	je	.i21_40_got_cl
  5391 00002626 40                      	inc	ax
  5392 00002627 EBEE                    	jmp	.i21_40_find_cl
  5393                                  .i21_40_got_cl:
  5394                                  	; Link previous cluster to this one
  5395 00002629 50                      	push	ax
  5396 0000262A BBFF0F                  	mov	bx, 0xFFF
  5397 0000262D E8F3E7                  	call	fat12_write_cluster	; Mark new cluster as EOF
  5398 00002630 2E8B84[743E]            	mov	ax, [cs:file_handles + si + 4]	; Previous cluster
  5399 00002635 5B                      	pop	bx			; New cluster
  5400 00002636 53                      	push	bx
  5401 00002637 E8E9E7                  	call	fat12_write_cluster	; Link previous → new
  5402 0000263A E8D9ED                  	call	write_fat
  5403 0000263D 58                      	pop	ax
  5404 0000263E 2E8984[743E]            	mov	[cs:file_handles + si + 4], ax	; Update current cluster
  5405 00002643 2EC784[763E]0000        	mov	word [cs:file_handles + si + 6], 0
  5406 0000264A 59                      	pop	cx
  5407 0000264B BB0000                  	mov	bx, 0
  5408 0000264E E918FF                  	jmp	.i21_40_write_loop
  5409                                  
  5410                                  .i21_40_full:
  5411 00002651 59                      	pop	cx
  5412                                  
  5413                                  .i21_40_flush:
  5414                                  	; Write current cluster back
  5415 00002652 2E899C[763E]            	mov	[cs:file_handles + si + 6], bx
  5416 00002657 2E893E[CA26]            	mov	[cs:.i21_40_dx], di
  5417                                  
  5418 0000265C 2E8B84[743E]            	mov	ax, [cs:file_handles + si + 4]
  5419 00002661 3DF80F                  	cmp	ax, 0xFF8
  5420 00002664 7317                    	jae	.i21_40_write_done
  5421 00002666 51                      	push	cx			; Save byte count
  5422 00002667 E868E7                  	call	cluster_to_chs
  5423 0000266A B80008                  	mov	ax, SHELL_SEG
  5424 0000266D 8EC0                    	mov	es, ax
  5425 0000266F BB0040                  	mov	bx, dir_buffer
  5426 00002672 B403                    	mov	ah, 0x03
  5427 00002674 B002                    	mov	al, SECS_PER_CLUST
  5428 00002676 8A16[0D3E]              	mov	dl, [resolved_drive]
  5429 0000267A CD13                    	int	0x13
  5430 0000267C 59                      	pop	cx
  5431                                  
  5432                                  .i21_40_write_done:
  5433                                  	; File size is updated by close handler from file pointer
  5434 0000267D 2E8E1E[C826]            	mov	ds, [cs:.i21_40_ds]
  5435 00002682 2EA1[CE26]              	mov	ax, [cs:.i21_40_written]
  5436 00002686 07                      	pop	es
  5437 00002687 5F                      	pop	di
  5438 00002688 5E                      	pop	si
  5439 00002689 55                      	push	bp
  5440 0000268A 89E5                    	mov	bp, sp
  5441 0000268C 836606FE                	and	word [bp+6], 0xFFFE
  5442 00002690 5D                      	pop	bp
  5443 00002691 CF                      	iret
  5444                                  
  5445                                  .i21_40_bad_pop:
  5446 00002692 07                      	pop	es
  5447 00002693 5F                      	pop	di
  5448 00002694 5E                      	pop	si
  5449                                  .i21_40_bad:
  5450 00002695 B80600                  	mov	ax, 6
  5451 00002698 55                      	push	bp
  5452 00002699 89E5                    	mov	bp, sp
  5453 0000269B 834E0601                	or	word [bp+6], 0x0001
  5454 0000269F 5D                      	pop	bp
  5455 000026A0 CF                      	iret
  5456                                  
  5457                                  .i21_40_stdout:
  5458                                  	; Print CX bytes from DS:DX to screen
  5459 000026A1 56                      	push	si
  5460 000026A2 51                      	push	cx
  5461 000026A3 89D6                    	mov	si, dx
  5462 000026A5 89C8                    	mov	ax, cx
  5463 000026A7 50                      	push	ax
  5464                                  .i21_40_out_loop:
  5465 000026A8 83F900                  	cmp	cx, 0
  5466 000026AB 740F                    	je	.i21_40_out_done
  5467 000026AD AC                      	lodsb
  5468 000026AE 53                      	push	bx
  5469 000026AF 51                      	push	cx
  5470 000026B0 B40E                    	mov	ah, 0x0E
  5471 000026B2 BB0700                  	mov	bx, 0x0007
  5472 000026B5 CD10                    	int	0x10
  5473 000026B7 59                      	pop	cx
  5474 000026B8 5B                      	pop	bx
  5475 000026B9 49                      	dec	cx
  5476 000026BA EBEC                    	jmp	.i21_40_out_loop
  5477                                  .i21_40_out_done:
  5478 000026BC 58                      	pop	ax
  5479 000026BD 59                      	pop	cx
  5480 000026BE 5E                      	pop	si
  5481 000026BF 55                      	push	bp
  5482 000026C0 89E5                    	mov	bp, sp
  5483 000026C2 836606FE                	and	word [bp+6], 0xFFFE
  5484 000026C6 5D                      	pop	bp
  5485 000026C7 CF                      	iret
  5486                                  
  5487 000026C8 0000                    .i21_40_ds	dw	0
  5488 000026CA 0000                    .i21_40_dx	dw	0
  5489 000026CC 0000                    .i21_40_cx	dw	0
  5490 000026CE 0000                    .i21_40_written	dw	0
  5491                                  
  5492                                  ; --- AH=42: Seek (move file pointer) ---
  5493                                  ; Input: BX = handle, AL = method (0=start, 1=current, 2=end)
  5494                                  ;        CX:DX = offset
  5495                                  ; Output: DX:AX = new position
  5496                                  .i21_42:
  5497 000026D0 83FB08                  	cmp	bx, MAX_HANDLES
  5498 000026D3 7203E98200              	jae	.i21_42_bad
  5499 000026D8 56                      	push	si
  5500 000026D9 89D8                    	mov	ax, bx
  5501 000026DB 51                      	push	cx
  5502 000026DC B104                    	mov	cl, 4
  5503 000026DE D3E0                    	shl	ax, cl
  5504 000026E0 59                      	pop	cx
  5505 000026E1 89C6                    	mov	si, ax
  5506                                  
  5507                                  	; Get method from AL on stack (it was the original AL)
  5508                                  	; Actually AL was trashed by shl. We need to get original AL.
  5509                                  	; The original AX is on the interrupt stack frame.
  5510                                  	; Let's read it from the saved flags area... actually the caller
  5511                                  	; passed AL in AH=42, AL=method. But AH dispatch already happened.
  5512                                  	; We need to save AL before the dispatch. For now, assume method=0 (from start)
  5513                                  
  5514                                  	; Method 0: set position to CX:DX
  5515 000026E3 2E8994[783E]            	mov	[cs:file_handles + si + 8], dx	; Position low
  5516 000026E8 2E898C[7A3E]            	mov	[cs:file_handles + si + 10], cx	; Position high
  5517                                  
  5518                                  	; Need to recalculate current cluster from start
  5519                                  	; Walk the FAT chain from start cluster
  5520 000026ED 53                      	push	bx
  5521 000026EE 52                      	push	dx
  5522                                  
  5523                                  	; Set resolved_drive from file handle
  5524 000026EF 2E8A84[713E]            	mov	al, [cs:file_handles + si + 1]
  5525 000026F4 2EA2[0D3E]              	mov	[cs:resolved_drive], al
  5526                                  
  5527 000026F8 56                      	push	si			; Save handle offset — read_fat may clobber SI
  5528 000026F9 B80008                  	mov	ax, SHELL_SEG
  5529 000026FC 1E                      	push	ds
  5530 000026FD 8ED8                    	mov	ds, ax
  5531 000026FF E8FBEC                  	call	read_fat
  5532 00002702 1F                      	pop	ds
  5533 00002703 5E                      	pop	si
  5534                                  
  5535 00002704 2E8B84[723E]            	mov	ax, [cs:file_handles + si + 2]	; Start cluster
  5536 00002709 2E8984[743E]            	mov	[cs:file_handles + si + 4], ax	; Reset current cluster
  5537                                  
  5538                                  	; Calculate how many clusters to skip
  5539                                  	; clusters_to_skip = position / (SECS_PER_CLUST * 512)
  5540                                  	; Use 32-bit divide: DX:AX / 1024
  5541 0000270E 2E8B94[7A3E]            	mov	dx, [cs:file_handles + si + 10]	; Position high
  5542 00002713 2E8B84[783E]            	mov	ax, [cs:file_handles + si + 8]	; Position low
  5543 00002718 BB0004                  	mov	bx, SECS_PER_CLUST * 512
  5544 0000271B F7F3                    	div	bx			; AX = clusters to skip, DX = position in cluster
  5545 0000271D 2E8994[763E]            	mov	[cs:file_handles + si + 6], dx	; Position within cluster
  5546                                  
  5547                                  	; Skip AX clusters
  5548 00002722 89C1                    	mov	cx, ax
  5549 00002724 2E8B84[743E]            	mov	ax, [cs:file_handles + si + 4]
  5550 00002729 E319                    	jcxz	.i21_42_positioned
  5551                                  .i21_42_skip:
  5552 0000272B 51                      	push	cx
  5553 0000272C 1E                      	push	ds
  5554 0000272D B90008                  	mov	cx, SHELL_SEG
  5555 00002730 8ED9                    	mov	ds, cx
  5556 00002732 E8C6F5                  	call	fat12_next_cluster
  5557 00002735 1F                      	pop	ds
  5558 00002736 59                      	pop	cx
  5559 00002737 3DF80F                  	cmp	ax, 0xFF8
  5560 0000273A 7308                    	jae	.i21_42_positioned	; Hit end of chain
  5561 0000273C 2E8984[743E]            	mov	[cs:file_handles + si + 4], ax
  5562 00002741 49                      	dec	cx
  5563 00002742 75E7                    	jnz	.i21_42_skip
  5564                                  
  5565                                  .i21_42_positioned:
  5566 00002744 5A                      	pop	dx
  5567 00002745 5B                      	pop	bx
  5568                                  
  5569                                  	; Return new position in DX:AX
  5570 00002746 2E8B84[783E]            	mov	ax, [cs:file_handles + si + 8]
  5571 0000274B 2E8B94[7A3E]            	mov	dx, [cs:file_handles + si + 10]
  5572                                  
  5573 00002750 5E                      	pop	si
  5574 00002751 55                      	push	bp
  5575 00002752 89E5                    	mov	bp, sp
  5576 00002754 836606FE                	and	word [bp+6], 0xFFFE
  5577 00002758 5D                      	pop	bp
  5578 00002759 CF                      	iret
  5579                                  
  5580                                  .i21_42_bad:
  5581 0000275A B80600                  	mov	ax, 6
  5582 0000275D 55                      	push	bp
  5583 0000275E 89E5                    	mov	bp, sp
  5584 00002760 834E0601                	or	word [bp+6], 0x0001
  5585 00002764 5D                      	pop	bp
  5586 00002765 CF                      	iret
  5587                                  
  5588                                  ; --- AH=48: Allocate memory ---
  5589                                  ; Input: BX = paragraphs requested
  5590                                  ; Output: AX = segment of allocated block, CF=0 on success
  5591                                  ;         CF=1 on failure, BX = largest available block
  5592                                  .i21_48:
  5593 00002766 51                      	push	cx
  5594 00002767 52                      	push	dx
  5595 00002768 06                      	push	es
  5596 00002769 57                      	push	di
  5597 0000276A 2EA1[143E]              	mov	ax, [cs:mcb_first]
  5598 0000276E 89D9                    	mov	cx, bx			; CX = requested size
  5599 00002770 BA0000                  	mov	dx, 0			; DX = largest free found
  5600                                  .i21_48_walk:
  5601 00002773 8EC0                    	mov	es, ax
  5602 00002775 26803E00004D            	cmp	byte [es:0x00], 'M'
  5603 0000277B 740B                    	je	.i21_48_check
  5604 0000277D 26803E00005A            	cmp	byte [es:0x00], 'Z'
  5605 00002783 7403                    	je	.i21_48_check
  5606 00002785 E99A00                  	jmp	.i21_48_fail		; Corrupt MCB
  5607                                  .i21_48_check:
  5608 00002788 26833E010000            	cmp	word [es:0x01], 0	; Free?
  5609 0000278E 7557                    	jne	.i21_48_next
  5610                                  	; Free block — check size
  5611 00002790 268B1E0300              	mov	bx, [es:0x03]
  5612 00002795 39D3                    	cmp	bx, dx			; Track largest
  5613 00002797 7602                    	jbe	.i21_48_not_larger
  5614 00002799 89DA                    	mov	dx, bx
  5615                                  .i21_48_not_larger:
  5616 0000279B 39CB                    	cmp	bx, cx			; Big enough?
  5617 0000279D 7248                    	jb	.i21_48_next
  5618                                  	; Allocate from this block
  5619                                  	; If exact fit or 1 para left, just take it
  5620 0000279F 89DF                    	mov	di, bx
  5621 000027A1 29CF                    	sub	di, cx
  5622 000027A3 83FF01                  	cmp	di, 1			; Room for a new MCB + at least 0 paras?
  5623 000027A6 7636                    	jbe	.i21_48_take_all
  5624                                  	; Split: shrink this block, create new MCB after
  5625 000027A8 26890E0300              	mov	word [es:0x03], cx	; Resize current block
  5626 000027AD 26C70601000020          	mov	word [es:0x01], PROG_SEG ; Owner = program (use PROG_SEG as placeholder)
  5627                                  	; New free MCB at (current_seg + 1 + cx)
  5628 000027B4 50                      	push	ax
  5629 000027B5 01C8                    	add	ax, cx
  5630 000027B7 40                      	inc	ax			; Skip past allocated block + MCB
  5631 000027B8 06                      	push	es
  5632 000027B9 8EC0                    	mov	es, ax
  5633 000027BB 2E8A1E[3428]            	mov	bl, [cs:.i21_48_type]	; Was original 'M' or 'Z'?
  5634 000027C0 26881E0000              	mov	[es:0x00], bl		; New block gets original type
  5635 000027C5 26C70601000000          	mov	word [es:0x01], 0	; Free
  5636 000027CC 83EF01                  	sub	di, 1			; Subtract MCB paragraph
  5637 000027CF 26893E0300              	mov	[es:0x03], di		; Remaining size
  5638 000027D4 07                      	pop	es
  5639 000027D5 26C60600004D            	mov	byte [es:0x00], 'M'	; Current block is no longer last
  5640 000027DB 58                      	pop	ax
  5641 000027DC EB26                    	jmp	.i21_48_ok
  5642                                  .i21_48_take_all:
  5643 000027DE 26C70601000020          	mov	word [es:0x01], PROG_SEG
  5644 000027E5 EB2B                    	jmp	.i21_48_ok_nosplit
  5645                                  .i21_48_next:
  5646                                  	; Save block type before moving on
  5647 000027E7 268A1E0000              	mov	bl, [es:0x00]
  5648 000027EC 2E881E[3428]            	mov	[cs:.i21_48_type], bl
  5649 000027F1 26803E00005A            	cmp	byte [es:0x00], 'Z'
  5650 000027F7 7429                    	je	.i21_48_fail
  5651                                  	; Next MCB = current_seg + size + 1
  5652 000027F9 268B1E0300              	mov	bx, [es:0x03]
  5653 000027FE 01D8                    	add	ax, bx
  5654 00002800 40                      	inc	ax
  5655 00002801 E96FFF                  	jmp	.i21_48_walk
  5656                                  .i21_48_ok:
  5657                                  	; Return segment = MCB segment + 1
  5658 00002804 40                      	inc	ax
  5659 00002805 5F                      	pop	di
  5660 00002806 07                      	pop	es
  5661 00002807 5A                      	pop	dx
  5662 00002808 59                      	pop	cx
  5663                                  	; Clear carry in flags on stack (iret will pop flags)
  5664 00002809 55                      	push	bp
  5665 0000280A 89E5                    	mov	bp, sp
  5666 0000280C 836606FE                	and	word [bp+6], 0xFFFE	; Clear CF in saved flags
  5667 00002810 5D                      	pop	bp
  5668 00002811 CF                      	iret
  5669                                  .i21_48_ok_nosplit:
  5670 00002812 8CC0                    	mov	ax, es
  5671 00002814 40                      	inc	ax
  5672 00002815 5F                      	pop	di
  5673 00002816 07                      	pop	es
  5674 00002817 5A                      	pop	dx
  5675 00002818 59                      	pop	cx
  5676 00002819 55                      	push	bp
  5677 0000281A 89E5                    	mov	bp, sp
  5678 0000281C 836606FE                	and	word [bp+6], 0xFFFE
  5679 00002820 5D                      	pop	bp
  5680 00002821 CF                      	iret
  5681                                  .i21_48_fail:
  5682 00002822 89D3                    	mov	bx, dx			; Return largest available
  5683 00002824 B80800                  	mov	ax, 8			; Error: insufficient memory
  5684 00002827 5F                      	pop	di
  5685 00002828 07                      	pop	es
  5686 00002829 5A                      	pop	dx
  5687 0000282A 59                      	pop	cx
  5688 0000282B 55                      	push	bp
  5689 0000282C 89E5                    	mov	bp, sp
  5690 0000282E 834E0601                	or	word [bp+6], 0x0001	; Set CF in saved flags
  5691 00002832 5D                      	pop	bp
  5692 00002833 CF                      	iret
  5693 00002834 4D                      .i21_48_type	db	'M'
  5694                                  
  5695                                  ; --- AH=49: Free memory ---
  5696                                  ; Input: ES = segment to free
  5697                                  ; Output: CF=0 on success
  5698                                  .i21_49:
  5699 00002835 50                      	push	ax
  5700 00002836 06                      	push	es
  5701                                  	; MCB is at ES-1
  5702 00002837 8CC0                    	mov	ax, es
  5703 00002839 48                      	dec	ax
  5704 0000283A 8EC0                    	mov	es, ax
  5705 0000283C 26803E00004D            	cmp	byte [es:0x00], 'M'
  5706 00002842 7416                    	je	.i21_49_ok
  5707 00002844 26803E00005A            	cmp	byte [es:0x00], 'Z'
  5708 0000284A 740E                    	je	.i21_49_ok
  5709                                  	; Invalid MCB
  5710 0000284C 07                      	pop	es
  5711 0000284D 58                      	pop	ax
  5712 0000284E B80900                  	mov	ax, 9			; Invalid MCB
  5713 00002851 55                      	push	bp
  5714 00002852 89E5                    	mov	bp, sp
  5715 00002854 834E0601                	or	word [bp+6], 0x0001
  5716 00002858 5D                      	pop	bp
  5717 00002859 CF                      	iret
  5718                                  .i21_49_ok:
  5719 0000285A 26C70601000000          	mov	word [es:0x01], 0	; Mark as free
  5720                                  	; Try to merge with next block if also free
  5721 00002861 E85E00                  	call	.mcb_merge_free
  5722 00002864 07                      	pop	es
  5723 00002865 58                      	pop	ax
  5724 00002866 55                      	push	bp
  5725 00002867 89E5                    	mov	bp, sp
  5726 00002869 836606FE                	and	word [bp+6], 0xFFFE
  5727 0000286D 5D                      	pop	bp
  5728 0000286E CF                      	iret
  5729                                  
  5730                                  ; --- AH=4A: Resize memory block ---
  5731                                  ; Input: ES = segment of block, BX = new size in paragraphs
  5732                                  ; Output: CF=0 on success, CF=1 on failure (BX = max available)
  5733                                  .i21_4a:
  5734 0000286F 50                      	push	ax
  5735 00002870 51                      	push	cx
  5736 00002871 06                      	push	es
  5737 00002872 8CC0                    	mov	ax, es
  5738 00002874 48                      	dec	ax
  5739 00002875 8EC0                    	mov	es, ax			; ES = MCB
  5740 00002877 268B0E0300              	mov	cx, [es:0x03]		; Current size
  5741 0000287C 39CB                    	cmp	bx, cx
  5742 0000287E 7611                    	jbe	.i21_4a_shrink
  5743                                  	; Growing — not supported (would need to check next block)
  5744 00002880 89CB                    	mov	bx, cx			; Return current size as max
  5745 00002882 07                      	pop	es
  5746 00002883 59                      	pop	cx
  5747 00002884 58                      	pop	ax
  5748 00002885 B80800                  	mov	ax, 8
  5749 00002888 55                      	push	bp
  5750 00002889 89E5                    	mov	bp, sp
  5751 0000288B 834E0601                	or	word [bp+6], 0x0001
  5752 0000288F 5D                      	pop	bp
  5753 00002890 CF                      	iret
  5754                                  .i21_4a_shrink:
  5755                                  	; Shrinking — adjust size, create free block after
  5756 00002891 26891E0300              	mov	word [es:0x03], bx
  5757 00002896 89D9                    	mov	cx, bx			; CX = new size
  5758 00002898 8CC0                    	mov	ax, es
  5759 0000289A 01D8                    	add	ax, bx
  5760 0000289C 40                      	inc	ax			; AX = new MCB segment after this block
  5761 0000289D 06                      	push	es
  5762 0000289E 50                      	push	ax
  5763 0000289F 8EC0                    	mov	es, ax
  5764 000028A1 26C60600005A            	mov	byte [es:0x00], 'Z'	; Last for now
  5765 000028A7 26C70601000000          	mov	word [es:0x01], 0	; Free
  5766                                  	; Remaining = old_size - new_size - 1 (for the new MCB)
  5767 000028AE 58                      	pop	ax
  5768 000028AF 07                      	pop	es
  5769 000028B0 06                      	push	es
  5770 000028B1 26A10300                	mov	ax, [es:0x03]		; This is already the new size (BX)
  5771 000028B5 07                      	pop	es
  5772                                  	; Recalculate: remaining = old_cx - bx - 1
  5773                                  	; We already set new size = bx. old was cx. But cx was overwritten.
  5774                                  	; Simpler: just set the new free block size and merge
  5775 000028B6 07                      	pop	es
  5776 000028B7 59                      	pop	cx
  5777 000028B8 58                      	pop	ax
  5778 000028B9 55                      	push	bp
  5779 000028BA 89E5                    	mov	bp, sp
  5780 000028BC 836606FE                	and	word [bp+6], 0xFFFE
  5781 000028C0 5D                      	pop	bp
  5782 000028C1 CF                      	iret
  5783                                  
  5784                                  ; --- MCB helper: merge adjacent free blocks ---
  5785                                  .mcb_merge_free:
  5786 000028C2 50                      	push	ax
  5787 000028C3 53                      	push	bx
  5788 000028C4 06                      	push	es
  5789 000028C5 2EA1[143E]              	mov	ax, [cs:mcb_first]
  5790                                  .mcb_merge_walk:
  5791 000028C9 8EC0                    	mov	es, ax
  5792 000028CB 26803E00005A            	cmp	byte [es:0x00], 'Z'
  5793 000028D1 7449                    	je	.mcb_merge_done
  5794 000028D3 26803E00004D            	cmp	byte [es:0x00], 'M'
  5795 000028D9 7541                    	jne	.mcb_merge_done
  5796 000028DB 26833E010000            	cmp	word [es:0x01], 0	; Current free?
  5797 000028E1 752F                    	jne	.mcb_merge_next
  5798                                  	; Check if next is also free
  5799 000028E3 268B1E0300              	mov	bx, [es:0x03]
  5800 000028E8 50                      	push	ax
  5801 000028E9 01D8                    	add	ax, bx
  5802 000028EB 40                      	inc	ax
  5803 000028EC 06                      	push	es
  5804 000028ED 8EC0                    	mov	es, ax
  5805 000028EF 26833E010000            	cmp	word [es:0x01], 0	; Next block free?
  5806 000028F5 7519                    	jne	.mcb_merge_no
  5807                                  	; Merge: absorb next block
  5808 000028F7 268B1E0300              	mov	bx, [es:0x03]		; Next block size
  5809 000028FC 26A00000                	mov	al, [es:0x00]		; Next block type (M or Z)
  5810 00002900 07                      	pop	es			; Back to current MCB
  5811 00002901 83C301                  	add	bx, 1			; +1 for absorbed MCB paragraph
  5812 00002904 26011E0300              	add	[es:0x03], bx		; Grow current block
  5813 00002909 26A20000                	mov	[es:0x00], al		; Inherit type
  5814 0000290D 58                      	pop	ax
  5815 0000290E EBB9                    	jmp	.mcb_merge_walk		; Check again (might merge more)
  5816                                  .mcb_merge_no:
  5817 00002910 07                      	pop	es
  5818 00002911 58                      	pop	ax
  5819                                  .mcb_merge_next:
  5820 00002912 268B1E0300              	mov	bx, [es:0x03]
  5821 00002917 01D8                    	add	ax, bx
  5822 00002919 40                      	inc	ax
  5823 0000291A EBAD                    	jmp	.mcb_merge_walk
  5824                                  .mcb_merge_done:
  5825 0000291C 07                      	pop	es
  5826 0000291D 5B                      	pop	bx
  5827 0000291E 58                      	pop	ax
  5828 0000291F C3                      	ret
  5829                                  
  5830                                  ; --- AH=19: Get current drive ---
  5831                                  ; Returns AL = current drive (0=A, 1=B, ...)
  5832                                  .i21_19:
  5833 00002920 2EA0[083E]              	mov	al, [cs:cur_drive]
  5834 00002924 CF                      	iret
  5835                                  
  5836                                  ; --- AH=1A: Set DTA address ---
  5837                                  ; DS:DX = new DTA
  5838                                  .i21_1a:
  5839 00002925 2E8C1E[6C3E]            	mov	[cs:dta_seg], ds
  5840 0000292A 2E8916[6E3E]            	mov	[cs:dta_off], dx
  5841 0000292F CF                      	iret
  5842                                  
  5843                                  ; --- AH=2A: Get date ---
  5844                                  ; Returns CX=year, DH=month, DL=day, AL=day of week
  5845                                  .i21_2a:
  5846 00002930 53                      	push	bx
  5847 00002931 B404                    	mov	ah, 0x04
  5848 00002933 CD1A                    	int	0x1A
  5849 00002935 7234                    	jc	.i21_2a_default
  5850                                  	; CH=century BCD, CL=year BCD, DH=month BCD, DL=day BCD
  5851 00002937 52                      	push	dx
  5852 00002938 88E8                    	mov	al, ch
  5853 0000293A E86300                  	call	.bcd_to_bin_i21
  5854 0000293D 88C7                    	mov	bh, al		; century
  5855 0000293F 88C8                    	mov	al, cl
  5856 00002941 E85C00                  	call	.bcd_to_bin_i21
  5857 00002944 88C3                    	mov	bl, al		; year
  5858 00002946 30E4                    	xor	ah, ah
  5859 00002948 88F8                    	mov	al, bh
  5860 0000294A B164                    	mov	cl, 100
  5861 0000294C F6E1                    	mul	cl
  5862 0000294E 30ED                    	xor	ch, ch
  5863 00002950 88D9                    	mov	cl, bl
  5864 00002952 01C8                    	add	ax, cx
  5865 00002954 89C1                    	mov	cx, ax		; CX = full year
  5866 00002956 5A                      	pop	dx
  5867 00002957 51                      	push	cx
  5868 00002958 88F0                    	mov	al, dh
  5869 0000295A E84300                  	call	.bcd_to_bin_i21
  5870 0000295D 88C6                    	mov	dh, al		; month
  5871 0000295F 88D0                    	mov	al, dl
  5872 00002961 E83C00                  	call	.bcd_to_bin_i21
  5873 00002964 88C2                    	mov	dl, al		; day
  5874 00002966 59                      	pop	cx
  5875 00002967 30C0                    	xor	al, al		; Day of week = 0 (not computed)
  5876 00002969 5B                      	pop	bx
  5877 0000296A CF                      	iret
  5878                                  .i21_2a_default:
  5879 0000296B B9EA07                  	mov	cx, 2026
  5880 0000296E B604                    	mov	dh, 4
  5881 00002970 B20E                    	mov	dl, 14
  5882 00002972 30C0                    	xor	al, al
  5883 00002974 5B                      	pop	bx
  5884 00002975 CF                      	iret
  5885                                  
  5886                                  ; --- AH=2C: Get time ---
  5887                                  ; Returns CH=hour, CL=minute, DH=second, DL=hundredths
  5888                                  .i21_2c:
  5889 00002976 B402                    	mov	ah, 0x02
  5890 00002978 CD1A                    	int	0x1A
  5891 0000297A 721E                    	jc	.i21_2c_default
  5892                                  	; CH=hour BCD, CL=min BCD, DH=sec BCD
  5893 0000297C 53                      	push	bx
  5894 0000297D 88E8                    	mov	al, ch
  5895 0000297F E81E00                  	call	.bcd_to_bin_i21
  5896 00002982 88C7                    	mov	bh, al		; hour
  5897 00002984 88C8                    	mov	al, cl
  5898 00002986 E81700                  	call	.bcd_to_bin_i21
  5899 00002989 88C3                    	mov	bl, al		; minute
  5900 0000298B 88F0                    	mov	al, dh
  5901 0000298D E81000                  	call	.bcd_to_bin_i21
  5902 00002990 88FD                    	mov	ch, bh		; hour
  5903 00002992 88D9                    	mov	cl, bl		; minute
  5904 00002994 88C6                    	mov	dh, al		; second
  5905 00002996 30D2                    	xor	dl, dl		; hundredths = 0
  5906 00002998 5B                      	pop	bx
  5907 00002999 CF                      	iret
  5908                                  .i21_2c_default:
  5909 0000299A B9000C                  	mov	cx, 0x0C00	; 12:00
  5910 0000299D 31D2                    	xor	dx, dx		; 0 seconds
  5911 0000299F CF                      	iret
  5912                                  
  5913                                  ; BCD to binary helper for INT 21h handlers
  5914                                  .bcd_to_bin_i21:
  5915 000029A0 51                      	push	cx
  5916 000029A1 88C1                    	mov	cl, al
  5917 000029A3 D0E8                    	shr	al, 1
  5918 000029A5 D0E8                    	shr	al, 1
  5919 000029A7 D0E8                    	shr	al, 1
  5920 000029A9 D0E8                    	shr	al, 1
  5921 000029AB B50A                    	mov	ch, 10
  5922 000029AD F6E5                    	mul	ch
  5923 000029AF 80E10F                  	and	cl, 0x0F
  5924 000029B2 00C8                    	add	al, cl
  5925 000029B4 59                      	pop	cx
  5926 000029B5 C3                      	ret
  5927                                  
  5928                                  ; --- AH=2F: Get DTA address ---
  5929                                  ; Returns ES:BX = current DTA
  5930                                  .i21_2f:
  5931 000029B6 2E8E06[6C3E]            	mov	es, [cs:dta_seg]
  5932 000029BB 2E8B1E[6E3E]            	mov	bx, [cs:dta_off]
  5933 000029C0 CF                      	iret
  5934                                  
  5935                                  ; --- AH=36: Get disk free space ---
  5936                                  ; Input: DL = drive (0=default, 1=A, 2=B)
  5937                                  ; Returns: AX=sectors per cluster, BX=free clusters, CX=bytes per sector, DX=total clusters
  5938                                  .i21_36:
  5939 000029C1 56                      	push	si
  5940 000029C2 57                      	push	di
  5941 000029C3 1E                      	push	ds
  5942 000029C4 B80008                  	mov	ax, SHELL_SEG
  5943 000029C7 8ED8                    	mov	ds, ax
  5944                                  	; Read FAT to count free clusters
  5945 000029C9 52                      	push	dx
  5946 000029CA E830EA                  	call	read_fat
  5947 000029CD 5A                      	pop	dx
  5948 000029CE 7229                    	jc	.i21_36_err
  5949                                  	; Count free clusters (cluster 2 through max)
  5950 000029D0 31DB                    	xor	bx, bx			; Free count
  5951 000029D2 B80200                  	mov	ax, 2			; Start at cluster 2
  5952 000029D5 BF6401                  	mov	di, (TOTAL_SECS - DATA_START_SEC) / SECS_PER_CLUST + 2 ; Max cluster
  5953                                  .i21_36_count:
  5954 000029D8 39F8                    	cmp	ax, di
  5955 000029DA 7310                    	jae	.i21_36_counted
  5956 000029DC 50                      	push	ax
  5957 000029DD 53                      	push	bx
  5958 000029DE E817E4                  	call	fat12_read_cluster	; AX = cluster value
  5959 000029E1 83F800                  	cmp	ax, 0
  5960 000029E4 5B                      	pop	bx
  5961 000029E5 58                      	pop	ax
  5962 000029E6 7501                    	jne	.i21_36_not_free
  5963 000029E8 43                      	inc	bx
  5964                                  .i21_36_not_free:
  5965 000029E9 40                      	inc	ax
  5966 000029EA EBEC                    	jmp	.i21_36_count
  5967                                  .i21_36_counted:
  5968 000029EC 1F                      	pop	ds
  5969 000029ED 5F                      	pop	di
  5970 000029EE 5E                      	pop	si
  5971 000029EF B80200                  	mov	ax, SECS_PER_CLUST
  5972 000029F2 B90002                  	mov	cx, 512
  5973 000029F5 BA6201                  	mov	dx, (TOTAL_SECS - DATA_START_SEC) / SECS_PER_CLUST
  5974 000029F8 CF                      	iret
  5975                                  .i21_36_err:
  5976 000029F9 1F                      	pop	ds
  5977 000029FA 5F                      	pop	di
  5978 000029FB 5E                      	pop	si
  5979 000029FC B8FFFF                  	mov	ax, 0xFFFF		; Error
  5980 000029FF CF                      	iret
  5981                                  
  5982                                  ; --- AH=44: IOCTL ---
  5983                                  ; AL=0: Get device info for handle BX
  5984                                  ; Returns DX = device info word
  5985                                  .i21_44:
  5986 00002A00 3C00                    	cmp	al, 0
  5987 00002A02 751D                    	jne	.i21_44_other
  5988                                  	; AL=0: Get device info
  5989 00002A04 83FB05                  	cmp	bx, 5
  5990 00002A07 730C                    	jae	.i21_44_file		; Handles 5+ are files
  5991                                  	; Handles 0-4 are devices (stdin/stdout/stderr/aux/prn)
  5992 00002A09 BAD380                  	mov	dx, 0x80D3		; Device: ISCIN|ISCOT|ISDEV|BINARY
  5993                                  	; Clear carry in flags on stack
  5994 00002A0C 55                      	push	bp
  5995 00002A0D 89E5                    	mov	bp, sp
  5996 00002A0F 836606FE                	and	word [bp+6], 0xFFFE
  5997 00002A13 5D                      	pop	bp
  5998 00002A14 CF                      	iret
  5999                                  .i21_44_file:
  6000 00002A15 BA0000                  	mov	dx, 0x0000		; Not a device, not EOF
  6001 00002A18 55                      	push	bp
  6002 00002A19 89E5                    	mov	bp, sp
  6003 00002A1B 836606FE                	and	word [bp+6], 0xFFFE
  6004 00002A1F 5D                      	pop	bp
  6005 00002A20 CF                      	iret
  6006                                  .i21_44_other:
  6007                                  	; Other IOCTL subfunctions — return error
  6008 00002A21 B80100                  	mov	ax, 1			; Invalid function
  6009 00002A24 55                      	push	bp
  6010 00002A25 89E5                    	mov	bp, sp
  6011 00002A27 834E0601                	or	word [bp+6], 0x0001	; Set carry
  6012 00002A2B 5D                      	pop	bp
  6013 00002A2C CF                      	iret
  6014                                  
  6015                                  ; --- AH=47: Get current directory ---
  6016                                  ; Input: DL = drive (0=default, 1=A, 2=B), DS:SI = 64-byte buffer
  6017                                  ; Returns: buffer filled with current path (no leading \)
  6018                                  .i21_47:
  6019 00002A2D 50                      	push	ax
  6020 00002A2E 57                      	push	di
  6021                                  	; Copy cur_dir_path to DS:SI
  6022 00002A2F 56                      	push	si
  6023 00002A30 1E                      	push	ds
  6024 00002A31 0E                      	push	cs
  6025 00002A32 1F                      	pop	ds
  6026 00002A33 BF[C63D]                	mov	di, cur_dir_path
  6027 00002A36 1F                      	pop	ds
  6028 00002A37 5E                      	pop	si
  6029                                  	; Now copy from CS:cur_dir_path to DS:SI
  6030 00002A38 56                      	push	si
  6031                                  .i21_47_copy:
  6032 00002A39 2E8A05                  	mov	al, [cs:di]
  6033 00002A3C 8804                    	mov	[si], al
  6034 00002A3E 08C0                    	or	al, al
  6035 00002A40 7404                    	jz	.i21_47_done
  6036 00002A42 46                      	inc	si
  6037 00002A43 47                      	inc	di
  6038 00002A44 EBF3                    	jmp	.i21_47_copy
  6039                                  .i21_47_done:
  6040 00002A46 5E                      	pop	si
  6041 00002A47 5F                      	pop	di
  6042 00002A48 58                      	pop	ax
  6043                                  	; Clear carry
  6044 00002A49 55                      	push	bp
  6045 00002A4A 89E5                    	mov	bp, sp
  6046 00002A4C 836606FE                	and	word [bp+6], 0xFFFE
  6047 00002A50 5D                      	pop	bp
  6048 00002A51 CF                      	iret
  6049                                  
  6050                                  ; --- AH=4D: Get return code ---
  6051                                  ; Returns AX = return code of last program
  6052                                  .i21_4d:
  6053 00002A52 2EA1[6A3E]              	mov	ax, [cs:last_return_code]
  6054 00002A56 CF                      	iret
  6055                                  
  6056                                  ; --- AH=62: Get PSP segment ---
  6057                                  ; Returns BX = PSP segment
  6058                                  .i21_62:
  6059 00002A57 2E8B1E[1C3E]            	mov	bx, [cs:exec_seg]
  6060 00002A5C CF                      	iret
  6061                                  
  6062                                  ; --- AH=0D: Disk reset (flush buffers) ---
  6063                                  ; No-op since we write through
  6064                                  .i21_0d:
  6065 00002A5D CF                      	iret
  6066                                  
  6067                                  ; --- AH=0E: Set current drive ---
  6068                                  ; Input: DL = drive (0=A, 1=B, ...)
  6069                                  ; Returns: AL = number of drives
  6070                                  .i21_0e:
  6071 00002A5E 80FA02                  	cmp	dl, 2
  6072 00002A61 7305                    	jae	.i21_0e_done
  6073 00002A63 2E8816[083E]            	mov	[cs:cur_drive], dl
  6074                                  .i21_0e_done:
  6075 00002A68 B002                    	mov	al, 2			; We support 2 drives
  6076 00002A6A CF                      	iret
  6077                                  
  6078                                  ; --- AH=29: Parse filename (FCB) ---
  6079                                  ; Input: DS:SI = command line, ES:DI = FCB buffer
  6080                                  ; Returns: AL = 0 if valid, DS:SI advanced
  6081                                  ; Simplified: just fill FCB with spaces and return success
  6082                                  .i21_29:
  6083 00002A6B 51                      	push	cx
  6084 00002A6C 57                      	push	di
  6085                                  	; Clear FCB (37 bytes)
  6086 00002A6D 50                      	push	ax
  6087 00002A6E B92500                  	mov	cx, 37
  6088 00002A71 30C0                    	xor	al, al
  6089 00002A73 F3AA                    	rep	stosb
  6090 00002A75 58                      	pop	ax
  6091 00002A76 5F                      	pop	di
  6092                                  	; Skip leading spaces
  6093                                  .i21_29_skip:
  6094 00002A77 8A04                    	mov	al, [si]
  6095 00002A79 3C20                    	cmp	al, ' '
  6096 00002A7B 7503                    	jne	.i21_29_parse
  6097 00002A7D 46                      	inc	si
  6098 00002A7E EBF7                    	jmp	.i21_29_skip
  6099                                  .i21_29_parse:
  6100                                  	; Check for drive letter
  6101 00002A80 807C013A                	cmp	byte [si+1], ':'
  6102 00002A84 7510                    	jne	.i21_29_no_drive
  6103 00002A86 8A04                    	mov	al, [si]
  6104 00002A88 3C61                    	cmp	al, 'a'
  6105 00002A8A 7202                    	jb	.i21_29_drv_up
  6106 00002A8C 2C20                    	sub	al, 0x20
  6107                                  .i21_29_drv_up:
  6108 00002A8E 2C40                    	sub	al, 'A' - 1		; 1=A, 2=B
  6109 00002A90 268805                  	mov	[es:di], al
  6110 00002A93 83C602                  	add	si, 2
  6111                                  .i21_29_no_drive:
  6112                                  	; Fill name (8 chars) with spaces first
  6113 00002A96 57                      	push	di
  6114 00002A97 83C701                  	add	di, 1
  6115 00002A9A 51                      	push	cx
  6116 00002A9B B90B00                  	mov	cx, 11
  6117 00002A9E B020                    	mov	al, ' '
  6118 00002AA0 F3AA                    	rep	stosb
  6119 00002AA2 59                      	pop	cx
  6120 00002AA3 5F                      	pop	di
  6121                                  	; Copy filename
  6122 00002AA4 57                      	push	di
  6123 00002AA5 83C701                  	add	di, 1
  6124 00002AA8 B90800                  	mov	cx, 8
  6125                                  .i21_29_name:
  6126 00002AAB 8A04                    	mov	al, [si]
  6127 00002AAD 3C00                    	cmp	al, 0
  6128 00002AAF 7459                    	je	.i21_29_done
  6129 00002AB1 3C20                    	cmp	al, ' '
  6130 00002AB3 7455                    	je	.i21_29_done
  6131 00002AB5 3C0D                    	cmp	al, 0x0D
  6132 00002AB7 7451                    	je	.i21_29_done
  6133 00002AB9 3C2E                    	cmp	al, '.'
  6134 00002ABB 7424                    	je	.i21_29_dot
  6135 00002ABD 3C61                    	cmp	al, 'a'
  6136 00002ABF 7206                    	jb	.i21_29_store
  6137 00002AC1 3C7A                    	cmp	al, 'z'
  6138 00002AC3 7702                    	ja	.i21_29_store
  6139 00002AC5 2C20                    	sub	al, 0x20
  6140                                  .i21_29_store:
  6141 00002AC7 268805                  	mov	[es:di], al
  6142 00002ACA 46                      	inc	si
  6143 00002ACB 47                      	inc	di
  6144 00002ACC 49                      	dec	cx
  6145 00002ACD 75DC                    	jnz	.i21_29_name
  6146                                  	; Skip to dot
  6147                                  .i21_29_skip_name:
  6148 00002ACF 803C2E                  	cmp	byte [si], '.'
  6149 00002AD2 740D                    	je	.i21_29_dot
  6150 00002AD4 803C00                  	cmp	byte [si], 0
  6151 00002AD7 7431                    	je	.i21_29_done
  6152 00002AD9 803C20                  	cmp	byte [si], ' '
  6153 00002ADC 742C                    	je	.i21_29_done
  6154 00002ADE 46                      	inc	si
  6155 00002ADF EBEE                    	jmp	.i21_29_skip_name
  6156                                  .i21_29_dot:
  6157 00002AE1 46                      	inc	si			; skip '.'
  6158 00002AE2 5F                      	pop	di
  6159 00002AE3 57                      	push	di
  6160 00002AE4 83C709                  	add	di, 9			; extension at FCB+9
  6161 00002AE7 B90300                  	mov	cx, 3
  6162                                  .i21_29_ext:
  6163 00002AEA 8A04                    	mov	al, [si]
  6164 00002AEC 3C00                    	cmp	al, 0
  6165 00002AEE 741A                    	je	.i21_29_done
  6166 00002AF0 3C20                    	cmp	al, ' '
  6167 00002AF2 7416                    	je	.i21_29_done
  6168 00002AF4 3C0D                    	cmp	al, 0x0D
  6169 00002AF6 7412                    	je	.i21_29_done
  6170 00002AF8 3C61                    	cmp	al, 'a'
  6171 00002AFA 7206                    	jb	.i21_29_ext_store
  6172 00002AFC 3C7A                    	cmp	al, 'z'
  6173 00002AFE 7702                    	ja	.i21_29_ext_store
  6174 00002B00 2C20                    	sub	al, 0x20
  6175                                  .i21_29_ext_store:
  6176 00002B02 268805                  	mov	[es:di], al
  6177 00002B05 46                      	inc	si
  6178 00002B06 47                      	inc	di
  6179 00002B07 49                      	dec	cx
  6180 00002B08 75E0                    	jnz	.i21_29_ext
  6181                                  .i21_29_done:
  6182 00002B0A 5F                      	pop	di
  6183 00002B0B 59                      	pop	cx
  6184 00002B0C 30C0                    	xor	al, al			; Success
  6185 00002B0E CF                      	iret
  6186                                  
  6187                                  ; --- AH=39: Create directory ---
  6188                                  ; Input: DS:DX = ASCIIZ pathname
  6189                                  ; Returns: CF=0 success, CF=1 AX=error
  6190                                  .i21_39:
  6191 00002B0F 53                      	push	bx
  6192 00002B10 51                      	push	cx
  6193 00002B11 56                      	push	si
  6194 00002B12 57                      	push	di
  6195 00002B13 06                      	push	es
  6196 00002B14 1E                      	push	ds
  6197                                  	; Copy path from caller's DS:DX to shell cmd_buffer
  6198 00002B15 89D6                    	mov	si, dx
  6199 00002B17 1E                      	push	ds
  6200 00002B18 B80008                  	mov	ax, SHELL_SEG
  6201 00002B1B 8ED8                    	mov	ds, ax
  6202 00002B1D BF[9F3C]                	mov	di, cmd_buffer
  6203 00002B20 1F                      	pop	ds
  6204 00002B21 57                      	push	di
  6205 00002B22 B94E00                  	mov	cx, 78
  6206                                  .i21_39_copy:
  6207 00002B25 AC                      	lodsb
  6208 00002B26 1E                      	push	ds
  6209 00002B27 BB0008                  	mov	bx, SHELL_SEG
  6210 00002B2A 8EDB                    	mov	ds, bx
  6211 00002B2C 8805                    	mov	[di], al
  6212 00002B2E 1F                      	pop	ds
  6213 00002B2F 08C0                    	or	al, al
  6214 00002B31 7404                    	jz	.i21_39_copied
  6215 00002B33 47                      	inc	di
  6216 00002B34 49                      	dec	cx
  6217 00002B35 75EE                    	jnz	.i21_39_copy
  6218                                  .i21_39_copied:
  6219 00002B37 5E                      	pop	si
  6220                                  	; Switch to shell DS
  6221 00002B38 B80008                  	mov	ax, SHELL_SEG
  6222 00002B3B 8ED8                    	mov	ds, ax
  6223                                  	; Use resolve_path + mkdir logic
  6224 00002B3D E804E9                  	call	resolve_path
  6225 00002B40 7303E93F01              	jc	.i21_39_err
  6226 00002B45 E819EA                  	call	read_resolved_dir
  6227 00002B48 7303E93701              	jc	.i21_39_err
  6228                                  	; Check duplicate
  6229 00002B4D BE0040                  	mov	si, dir_buffer
  6230 00002B50 8B0E[0B3E]              	mov	cx, [resolved_dir_entries]
  6231                                  .i21_39_dup:
  6232 00002B54 8A04                    	mov	al, [si]
  6233 00002B56 3C00                    	cmp	al, 0
  6234 00002B58 741B                    	je	.i21_39_dup_ok
  6235 00002B5A 3CE5                    	cmp	al, 0xE5
  6236 00002B5C 7411                    	je	.i21_39_dup_next
  6237 00002B5E 51                      	push	cx
  6238 00002B5F 56                      	push	si
  6239 00002B60 BF[F03C]                	mov	di, exec_fname
  6240 00002B63 B90B00                  	mov	cx, 11
  6241 00002B66 F3A6                    	repe	cmpsb
  6242 00002B68 5E                      	pop	si
  6243 00002B69 59                      	pop	cx
  6244 00002B6A 7503E91501              	je	.i21_39_exists
  6245                                  .i21_39_dup_next:
  6246 00002B6F 83C620                  	add	si, 32
  6247 00002B72 49                      	dec	cx
  6248 00002B73 75DF                    	jnz	.i21_39_dup
  6249                                  .i21_39_dup_ok:
  6250                                  	; Find free entry
  6251 00002B75 BE0040                  	mov	si, dir_buffer
  6252 00002B78 8B0E[0B3E]              	mov	cx, [resolved_dir_entries]
  6253                                  .i21_39_free:
  6254 00002B7C 8A04                    	mov	al, [si]
  6255 00002B7E 3C00                    	cmp	al, 0
  6256 00002B80 740D                    	je	.i21_39_free_found
  6257 00002B82 3CE5                    	cmp	al, 0xE5
  6258 00002B84 7409                    	je	.i21_39_free_found
  6259 00002B86 83C620                  	add	si, 32
  6260 00002B89 49                      	dec	cx
  6261 00002B8A 75F0                    	jnz	.i21_39_free
  6262 00002B8C E9F500                  	jmp	.i21_39_err		; Dir full
  6263                                  .i21_39_free_found:
  6264 00002B8F 89F0                    	mov	ax, si
  6265 00002B91 2D0040                  	sub	ax, dir_buffer
  6266 00002B94 A3[1E3D]                	mov	[copy_dest_dir], ax
  6267                                  	; Find free cluster
  6268 00002B97 E863E8                  	call	read_fat
  6269 00002B9A 7303E9E500              	jc	.i21_39_err
  6270 00002B9F B80200                  	mov	ax, 2
  6271                                  .i21_39_find_cl:
  6272 00002BA2 3DD002                  	cmp	ax, 720
  6273 00002BA5 7203E9DA00              	jae	.i21_39_err
  6274 00002BAA 50                      	push	ax
  6275 00002BAB E84AE2                  	call	fat12_read_cluster
  6276 00002BAE 83F800                  	cmp	ax, 0
  6277 00002BB1 58                      	pop	ax
  6278 00002BB2 7403                    	je	.i21_39_got_cl
  6279 00002BB4 40                      	inc	ax
  6280 00002BB5 EBEB                    	jmp	.i21_39_find_cl
  6281                                  .i21_39_got_cl:
  6282 00002BB7 A3[183D]                	mov	[copy_dest_cl], ax
  6283 00002BBA BBFF0F                  	mov	bx, 0xFFF
  6284 00002BBD E863E2                  	call	fat12_write_cluster
  6285 00002BC0 E853E8                  	call	write_fat
  6286 00002BC3 7303E9BC00              	jc	.i21_39_err
  6287                                  	; Get timestamp
  6288 00002BC8 E8910B                  	call	get_fat_timestamp
  6289                                  	; Init new dir with . and ..
  6290 00002BCB BF0040                  	mov	di, dir_buffer
  6291 00002BCE B90004                  	mov	cx, SECS_PER_CLUST * 512
  6292 00002BD1 30C0                    	xor	al, al
  6293 00002BD3 F3AA                    	rep	stosb
  6294 00002BD5 BF0040                  	mov	di, dir_buffer
  6295 00002BD8 C6052E                  	mov	byte [di], '.'
  6296 00002BDB B90A00                  	mov	cx, 10
  6297 00002BDE B020                    	mov	al, ' '
  6298 00002BE0 57                      	push	di
  6299 00002BE1 47                      	inc	di
  6300 00002BE2 F3AA                    	rep	stosb
  6301 00002BE4 5F                      	pop	di
  6302 00002BE5 C6450B10                	mov	byte [di+11], 0x10
  6303 00002BE9 A1[4F38]                	mov	ax, [cur_fat_time]
  6304 00002BEC 894516                  	mov	[di+22], ax
  6305 00002BEF A1[5138]                	mov	ax, [cur_fat_date]
  6306 00002BF2 894518                  	mov	[di+24], ax
  6307 00002BF5 A1[183D]                	mov	ax, [copy_dest_cl]
  6308 00002BF8 89451A                  	mov	[di+26], ax
  6309 00002BFB 83C720                  	add	di, 32
  6310 00002BFE C6052E                  	mov	byte [di], '.'
  6311 00002C01 C645012E                	mov	byte [di+1], '.'
  6312 00002C05 B90900                  	mov	cx, 9
  6313 00002C08 B020                    	mov	al, ' '
  6314 00002C0A 57                      	push	di
  6315 00002C0B 83C702                  	add	di, 2
  6316 00002C0E F3AA                    	rep	stosb
  6317 00002C10 5F                      	pop	di
  6318 00002C11 C6450B10                	mov	byte [di+11], 0x10
  6319 00002C15 A1[4F38]                	mov	ax, [cur_fat_time]
  6320 00002C18 894516                  	mov	[di+22], ax
  6321 00002C1B A1[5138]                	mov	ax, [cur_fat_date]
  6322 00002C1E 894518                  	mov	[di+24], ax
  6323 00002C21 A1[093E]                	mov	ax, [resolved_dir_cluster]
  6324 00002C24 89451A                  	mov	[di+26], ax
  6325                                  	; Write new dir data
  6326 00002C27 A1[183D]                	mov	ax, [copy_dest_cl]
  6327 00002C2A E8A5E1                  	call	cluster_to_chs
  6328 00002C2D B80008                  	mov	ax, SHELL_SEG
  6329 00002C30 8EC0                    	mov	es, ax
  6330 00002C32 BB0040                  	mov	bx, dir_buffer
  6331 00002C35 B403                    	mov	ah, 0x03
  6332 00002C37 B002                    	mov	al, SECS_PER_CLUST
  6333 00002C39 8A16[0D3E]              	mov	dl, [resolved_drive]
  6334 00002C3D CD13                    	int	0x13
  6335 00002C3F 7243                    	jc	.i21_39_err
  6336                                  	; Re-read parent and add entry
  6337 00002C41 E81DE9                  	call	read_resolved_dir
  6338 00002C44 723E                    	jc	.i21_39_err
  6339 00002C46 BF0040                  	mov	di, dir_buffer
  6340 00002C49 033E[1E3D]              	add	di, [copy_dest_dir]
  6341 00002C4D BE[F03C]                	mov	si, exec_fname
  6342 00002C50 B90B00                  	mov	cx, 11
  6343 00002C53 F3A4                    	rep	movsb
  6344 00002C55 C60510                  	mov	byte [di], 0x10
  6345 00002C58 47                      	inc	di
  6346 00002C59 B90A00                  	mov	cx, 10
  6347 00002C5C 30C0                    	xor	al, al
  6348 00002C5E F3AA                    	rep	stosb
  6349 00002C60 A1[4F38]                	mov	ax, [cur_fat_time]
  6350 00002C63 AB                      	stosw
  6351 00002C64 A1[5138]                	mov	ax, [cur_fat_date]
  6352 00002C67 AB                      	stosw
  6353 00002C68 A1[183D]                	mov	ax, [copy_dest_cl]
  6354 00002C6B AB                      	stosw
  6355 00002C6C 31C0                    	xor	ax, ax
  6356 00002C6E AB                      	stosw
  6357 00002C6F AB                      	stosw
  6358 00002C70 E827E9                  	call	write_resolved_dir
  6359 00002C73 720F                    	jc	.i21_39_err
  6360 00002C75 1F                      	pop	ds
  6361 00002C76 07                      	pop	es
  6362 00002C77 5F                      	pop	di
  6363 00002C78 5E                      	pop	si
  6364 00002C79 59                      	pop	cx
  6365 00002C7A 5B                      	pop	bx
  6366 00002C7B 55                      	push	bp
  6367 00002C7C 89E5                    	mov	bp, sp
  6368 00002C7E 836606FE                	and	word [bp+6], 0xFFFE	; Clear CF
  6369 00002C82 5D                      	pop	bp
  6370 00002C83 CF                      	iret
  6371                                  .i21_39_exists:
  6372                                  .i21_39_err:
  6373 00002C84 1F                      	pop	ds
  6374 00002C85 07                      	pop	es
  6375 00002C86 5F                      	pop	di
  6376 00002C87 5E                      	pop	si
  6377 00002C88 59                      	pop	cx
  6378 00002C89 5B                      	pop	bx
  6379 00002C8A B80500                  	mov	ax, 5			; Access denied
  6380 00002C8D 55                      	push	bp
  6381 00002C8E 89E5                    	mov	bp, sp
  6382 00002C90 834E0601                	or	word [bp+6], 0x0001	; Set CF
  6383 00002C94 5D                      	pop	bp
  6384 00002C95 CF                      	iret
  6385                                  
  6386                                  ; --- AH=3A: Remove directory ---
  6387                                  ; Input: DS:DX = ASCIIZ pathname
  6388                                  ; Returns: CF=0 success, CF=1 AX=error
  6389                                  .i21_3a:
  6390 00002C96 53                      	push	bx
  6391 00002C97 51                      	push	cx
  6392 00002C98 56                      	push	si
  6393 00002C99 57                      	push	di
  6394 00002C9A 06                      	push	es
  6395 00002C9B 1E                      	push	ds
  6396                                  	; Copy path from caller
  6397 00002C9C 89D6                    	mov	si, dx
  6398 00002C9E 1E                      	push	ds
  6399 00002C9F B80008                  	mov	ax, SHELL_SEG
  6400 00002CA2 8ED8                    	mov	ds, ax
  6401 00002CA4 BF[9F3C]                	mov	di, cmd_buffer
  6402 00002CA7 1F                      	pop	ds
  6403 00002CA8 57                      	push	di
  6404 00002CA9 B94E00                  	mov	cx, 78
  6405                                  .i21_3a_copy:
  6406 00002CAC AC                      	lodsb
  6407 00002CAD 1E                      	push	ds
  6408 00002CAE BB0008                  	mov	bx, SHELL_SEG
  6409 00002CB1 8EDB                    	mov	ds, bx
  6410 00002CB3 8805                    	mov	[di], al
  6411 00002CB5 1F                      	pop	ds
  6412 00002CB6 08C0                    	or	al, al
  6413 00002CB8 7404                    	jz	.i21_3a_copied
  6414 00002CBA 47                      	inc	di
  6415 00002CBB 49                      	dec	cx
  6416 00002CBC 75EE                    	jnz	.i21_3a_copy
  6417                                  .i21_3a_copied:
  6418 00002CBE 5E                      	pop	si
  6419 00002CBF B80008                  	mov	ax, SHELL_SEG
  6420 00002CC2 8ED8                    	mov	ds, ax
  6421 00002CC4 E87DE7                  	call	resolve_path
  6422 00002CC7 7303E9EE00              	jc	.i21_3a_err
  6423 00002CCC E892E8                  	call	read_resolved_dir
  6424 00002CCF 7303E9E600              	jc	.i21_3a_err
  6425                                  	; Find the directory entry
  6426 00002CD4 BE0040                  	mov	si, dir_buffer
  6427 00002CD7 8B0E[0B3E]              	mov	cx, [resolved_dir_entries]
  6428                                  .i21_3a_search:
  6429 00002CDB 8A04                    	mov	al, [si]
  6430 00002CDD 3C00                    	cmp	al, 0
  6431 00002CDF 7503E9D600              	je	.i21_3a_err
  6432 00002CE4 3CE5                    	cmp	al, 0xE5
  6433 00002CE6 7414                    	je	.i21_3a_next
  6434 00002CE8 F6440B10                	test	byte [si+11], 0x10
  6435 00002CEC 740E                    	jz	.i21_3a_next
  6436 00002CEE 51                      	push	cx
  6437 00002CEF 56                      	push	si
  6438 00002CF0 BF[F03C]                	mov	di, exec_fname
  6439 00002CF3 B90B00                  	mov	cx, 11
  6440 00002CF6 F3A6                    	repe	cmpsb
  6441 00002CF8 5E                      	pop	si
  6442 00002CF9 59                      	pop	cx
  6443 00002CFA 7409                    	je	.i21_3a_found
  6444                                  .i21_3a_next:
  6445 00002CFC 83C620                  	add	si, 32
  6446 00002CFF 49                      	dec	cx
  6447 00002D00 75D9                    	jnz	.i21_3a_search
  6448 00002D02 E9B500                  	jmp	.i21_3a_err
  6449                                  .i21_3a_found:
  6450                                  	; Save entry offset and cluster
  6451 00002D05 89F0                    	mov	ax, si
  6452 00002D07 2D0040                  	sub	ax, dir_buffer
  6453 00002D0A A3[1E3D]                	mov	[copy_dest_dir], ax
  6454 00002D0D 8B441A                  	mov	ax, [si+26]
  6455 00002D10 A3[183D]                	mov	[copy_dest_cl], ax
  6456                                  	; Check it's not . or ..
  6457 00002D13 803C2E                  	cmp	byte [si], '.'
  6458 00002D16 7518                    	jne	.i21_3a_not_dot
  6459 00002D18 807C0120                	cmp	byte [si+1], ' '
  6460 00002D1C 7503E99900              	je	.i21_3a_err
  6461 00002D21 807C012E                	cmp	byte [si+1], '.'
  6462 00002D25 7509                    	jne	.i21_3a_not_dot
  6463 00002D27 807C0220                	cmp	byte [si+2], ' '
  6464 00002D2B 7503E98A00              	je	.i21_3a_err
  6465                                  .i21_3a_not_dot:
  6466                                  	; Check directory is empty
  6467 00002D30 FF36[093E]              	push	word [resolved_dir_cluster]
  6468 00002D34 FF36[0B3E]              	push	word [resolved_dir_entries]
  6469 00002D38 A1[183D]                	mov	ax, [copy_dest_cl]
  6470 00002D3B A3[093E]                	mov	[resolved_dir_cluster], ax
  6471 00002D3E C706[0B3E]2000          	mov	word [resolved_dir_entries], SECS_PER_CLUST * 512 / 32
  6472 00002D44 E81AE8                  	call	read_resolved_dir
  6473 00002D47 7303E98000              	jc	.i21_3a_err_pop
  6474 00002D4C BE0040                  	mov	si, dir_buffer
  6475 00002D4F B92000                  	mov	cx, SECS_PER_CLUST * 512 / 32
  6476                                  .i21_3a_check:
  6477 00002D52 8A04                    	mov	al, [si]
  6478 00002D54 3C00                    	cmp	al, 0
  6479 00002D56 7422                    	je	.i21_3a_empty
  6480 00002D58 3CE5                    	cmp	al, 0xE5
  6481 00002D5A 7418                    	je	.i21_3a_check_next
  6482 00002D5C 3C2E                    	cmp	al, '.'
  6483 00002D5E 7558                    	jne	.i21_3a_not_empty
  6484 00002D60 807C0120                	cmp	byte [si+1], ' '
  6485 00002D64 740E                    	je	.i21_3a_check_next
  6486 00002D66 807C012E                	cmp	byte [si+1], '.'
  6487 00002D6A 754C                    	jne	.i21_3a_not_empty
  6488 00002D6C 807C0220                	cmp	byte [si+2], ' '
  6489 00002D70 7402                    	je	.i21_3a_check_next
  6490 00002D72 EB44                    	jmp	.i21_3a_not_empty
  6491                                  .i21_3a_check_next:
  6492 00002D74 83C620                  	add	si, 32
  6493 00002D77 49                      	dec	cx
  6494 00002D78 75D8                    	jnz	.i21_3a_check
  6495                                  .i21_3a_empty:
  6496 00002D7A 58                      	pop	ax
  6497 00002D7B A3[0B3E]                	mov	[resolved_dir_entries], ax
  6498 00002D7E 58                      	pop	ax
  6499 00002D7F A3[093E]                	mov	[resolved_dir_cluster], ax
  6500                                  	; Free cluster
  6501 00002D82 E878E6                  	call	read_fat
  6502 00002D85 7233                    	jc	.i21_3a_err
  6503 00002D87 A1[183D]                	mov	ax, [copy_dest_cl]
  6504 00002D8A BB0000                  	mov	bx, 0
  6505 00002D8D E893E0                  	call	fat12_write_cluster
  6506 00002D90 E883E6                  	call	write_fat
  6507 00002D93 7225                    	jc	.i21_3a_err
  6508                                  	; Re-read parent and mark deleted
  6509 00002D95 E8C9E7                  	call	read_resolved_dir
  6510 00002D98 7220                    	jc	.i21_3a_err
  6511 00002D9A BE0040                  	mov	si, dir_buffer
  6512 00002D9D 0336[1E3D]              	add	si, [copy_dest_dir]
  6513 00002DA1 C604E5                  	mov	byte [si], 0xE5
  6514 00002DA4 E8F3E7                  	call	write_resolved_dir
  6515 00002DA7 7211                    	jc	.i21_3a_err
  6516 00002DA9 1F                      	pop	ds
  6517 00002DAA 07                      	pop	es
  6518 00002DAB 5F                      	pop	di
  6519 00002DAC 5E                      	pop	si
  6520 00002DAD 59                      	pop	cx
  6521 00002DAE 5B                      	pop	bx
  6522 00002DAF 55                      	push	bp
  6523 00002DB0 89E5                    	mov	bp, sp
  6524 00002DB2 836606FE                	and	word [bp+6], 0xFFFE
  6525 00002DB6 5D                      	pop	bp
  6526 00002DB7 CF                      	iret
  6527                                  .i21_3a_not_empty:
  6528 00002DB8 58                      	pop	ax
  6529 00002DB9 58                      	pop	ax
  6530                                  .i21_3a_err:
  6531 00002DBA 1F                      	pop	ds
  6532 00002DBB 07                      	pop	es
  6533 00002DBC 5F                      	pop	di
  6534 00002DBD 5E                      	pop	si
  6535 00002DBE 59                      	pop	cx
  6536 00002DBF 5B                      	pop	bx
  6537 00002DC0 B80500                  	mov	ax, 5
  6538 00002DC3 55                      	push	bp
  6539 00002DC4 89E5                    	mov	bp, sp
  6540 00002DC6 834E0601                	or	word [bp+6], 0x0001
  6541 00002DCA 5D                      	pop	bp
  6542 00002DCB CF                      	iret
  6543                                  .i21_3a_err_pop:
  6544 00002DCC 58                      	pop	ax
  6545 00002DCD 58                      	pop	ax
  6546 00002DCE EBEA                    	jmp	.i21_3a_err
  6547                                  
  6548                                  ; --- AH=3B: Change directory ---
  6549                                  ; Input: DS:DX = ASCIIZ pathname
  6550                                  ; Returns: CF=0 success, CF=1 AX=error
  6551                                  .i21_3b:
  6552 00002DD0 53                      	push	bx
  6553 00002DD1 51                      	push	cx
  6554 00002DD2 56                      	push	si
  6555 00002DD3 57                      	push	di
  6556 00002DD4 06                      	push	es
  6557 00002DD5 1E                      	push	ds
  6558                                  	; Copy path from caller's DS:DX
  6559 00002DD6 89D6                    	mov	si, dx
  6560 00002DD8 1E                      	push	ds
  6561 00002DD9 B80008                  	mov	ax, SHELL_SEG
  6562 00002DDC 8ED8                    	mov	ds, ax
  6563 00002DDE BF[9F3C]                	mov	di, cmd_buffer
  6564 00002DE1 1F                      	pop	ds
  6565 00002DE2 57                      	push	di
  6566 00002DE3 B94E00                  	mov	cx, 78
  6567                                  .i21_3b_copy:
  6568 00002DE6 AC                      	lodsb
  6569 00002DE7 1E                      	push	ds
  6570 00002DE8 BB0008                  	mov	bx, SHELL_SEG
  6571 00002DEB 8EDB                    	mov	ds, bx
  6572 00002DED 8805                    	mov	[di], al
  6573 00002DEF 1F                      	pop	ds
  6574 00002DF0 08C0                    	or	al, al
  6575 00002DF2 7404                    	jz	.i21_3b_copied
  6576 00002DF4 47                      	inc	di
  6577 00002DF5 49                      	dec	cx
  6578 00002DF6 75EE                    	jnz	.i21_3b_copy
  6579                                  .i21_3b_copied:
  6580 00002DF8 5E                      	pop	si
  6581 00002DF9 B80008                  	mov	ax, SHELL_SEG
  6582 00002DFC 8ED8                    	mov	ds, ax
  6583 00002DFE E843E6                  	call	resolve_path
  6584 00002E01 726D                    	jc	.i21_3b_err
  6585                                  	; If exec_fname blank, resolved_dir_cluster is target
  6586 00002E03 803E[F03C]20            	cmp	byte [exec_fname], ' '
  6587 00002E08 744B                    	je	.i21_3b_set
  6588                                  	; Look up as subdir
  6589 00002E0A E854E7                  	call	read_resolved_dir
  6590 00002E0D 7261                    	jc	.i21_3b_err
  6591 00002E0F BE0040                  	mov	si, dir_buffer
  6592 00002E12 8B0E[0B3E]              	mov	cx, [resolved_dir_entries]
  6593                                  .i21_3b_search:
  6594 00002E16 8A04                    	mov	al, [si]
  6595 00002E18 3C00                    	cmp	al, 0
  6596 00002E1A 7454                    	je	.i21_3b_err
  6597 00002E1C 3CE5                    	cmp	al, 0xE5
  6598 00002E1E 7414                    	je	.i21_3b_next
  6599 00002E20 F6440B10                	test	byte [si+11], 0x10
  6600 00002E24 740E                    	jz	.i21_3b_next
  6601 00002E26 51                      	push	cx
  6602 00002E27 56                      	push	si
  6603 00002E28 BF[F03C]                	mov	di, exec_fname
  6604 00002E2B B90B00                  	mov	cx, 11
  6605 00002E2E F3A6                    	repe	cmpsb
  6606 00002E30 5E                      	pop	si
  6607 00002E31 59                      	pop	cx
  6608 00002E32 7408                    	je	.i21_3b_found
  6609                                  .i21_3b_next:
  6610 00002E34 83C620                  	add	si, 32
  6611 00002E37 49                      	dec	cx
  6612 00002E38 75DC                    	jnz	.i21_3b_search
  6613 00002E3A EB34                    	jmp	.i21_3b_err
  6614                                  .i21_3b_found:
  6615 00002E3C 8B441A                  	mov	ax, [si+26]
  6616 00002E3F A3[093E]                	mov	[resolved_dir_cluster], ax
  6617 00002E42 83F800                  	cmp	ax, 0
  6618 00002E45 7508                    	jne	.i21_3b_sub
  6619 00002E47 C706[0B3E]7000          	mov	word [resolved_dir_entries], MAX_DIR_ENTRIES
  6620 00002E4D EB06                    	jmp	.i21_3b_set
  6621                                  .i21_3b_sub:
  6622 00002E4F C706[0B3E]2000          	mov	word [resolved_dir_entries], SECS_PER_CLUST * 512 / 32
  6623                                  .i21_3b_set:
  6624 00002E55 A1[093E]                	mov	ax, [resolved_dir_cluster]
  6625 00002E58 A3[C23D]                	mov	[cur_dir_cluster], ax
  6626 00002E5B A1[0B3E]                	mov	ax, [resolved_dir_entries]
  6627 00002E5E A3[C43D]                	mov	[cur_dir_entries], ax
  6628 00002E61 1F                      	pop	ds
  6629 00002E62 07                      	pop	es
  6630 00002E63 5F                      	pop	di
  6631 00002E64 5E                      	pop	si
  6632 00002E65 59                      	pop	cx
  6633 00002E66 5B                      	pop	bx
  6634 00002E67 55                      	push	bp
  6635 00002E68 89E5                    	mov	bp, sp
  6636 00002E6A 836606FE                	and	word [bp+6], 0xFFFE
  6637 00002E6E 5D                      	pop	bp
  6638 00002E6F CF                      	iret
  6639                                  .i21_3b_err:
  6640 00002E70 1F                      	pop	ds
  6641 00002E71 07                      	pop	es
  6642 00002E72 5F                      	pop	di
  6643 00002E73 5E                      	pop	si
  6644 00002E74 59                      	pop	cx
  6645 00002E75 5B                      	pop	bx
  6646 00002E76 B80300                  	mov	ax, 3			; Path not found
  6647 00002E79 55                      	push	bp
  6648 00002E7A 89E5                    	mov	bp, sp
  6649 00002E7C 834E0601                	or	word [bp+6], 0x0001
  6650 00002E80 5D                      	pop	bp
  6651 00002E81 CF                      	iret
  6652                                  
  6653                                  ; --- AH=41: Delete file ---
  6654                                  ; Input: DS:DX = ASCIIZ filename
  6655                                  ; Returns: CF=0 success, CF=1 AX=error
  6656                                  .i21_41:
  6657 00002E82 53                      	push	bx
  6658 00002E83 51                      	push	cx
  6659 00002E84 56                      	push	si
  6660 00002E85 57                      	push	di
  6661 00002E86 06                      	push	es
  6662 00002E87 1E                      	push	ds
  6663                                  	; Copy filename from caller
  6664 00002E88 89D6                    	mov	si, dx
  6665 00002E8A 1E                      	push	ds
  6666 00002E8B B80008                  	mov	ax, SHELL_SEG
  6667 00002E8E 8ED8                    	mov	ds, ax
  6668 00002E90 BF[9F3C]                	mov	di, cmd_buffer
  6669 00002E93 1F                      	pop	ds
  6670 00002E94 57                      	push	di
  6671 00002E95 B94E00                  	mov	cx, 78
  6672                                  .i21_41_copy:
  6673 00002E98 AC                      	lodsb
  6674 00002E99 1E                      	push	ds
  6675 00002E9A BB0008                  	mov	bx, SHELL_SEG
  6676 00002E9D 8EDB                    	mov	ds, bx
  6677 00002E9F 8805                    	mov	[di], al
  6678 00002EA1 1F                      	pop	ds
  6679 00002EA2 08C0                    	or	al, al
  6680 00002EA4 7404                    	jz	.i21_41_copied
  6681 00002EA6 47                      	inc	di
  6682 00002EA7 49                      	dec	cx
  6683 00002EA8 75EE                    	jnz	.i21_41_copy
  6684                                  .i21_41_copied:
  6685 00002EAA 5E                      	pop	si
  6686 00002EAB B80008                  	mov	ax, SHELL_SEG
  6687 00002EAE 8ED8                    	mov	ds, ax
  6688 00002EB0 E891E5                  	call	resolve_path
  6689 00002EB3 7273                    	jc	.i21_41_err
  6690 00002EB5 E8A9E6                  	call	read_resolved_dir
  6691 00002EB8 726E                    	jc	.i21_41_err
  6692                                  	; Find the file
  6693 00002EBA BE0040                  	mov	si, dir_buffer
  6694 00002EBD 8B0E[0B3E]              	mov	cx, [resolved_dir_entries]
  6695                                  .i21_41_search:
  6696 00002EC1 8A04                    	mov	al, [si]
  6697 00002EC3 3C00                    	cmp	al, 0
  6698 00002EC5 7418                    	je	.i21_41_not_found
  6699 00002EC7 3CE5                    	cmp	al, 0xE5
  6700 00002EC9 740E                    	je	.i21_41_next
  6701 00002ECB 51                      	push	cx
  6702 00002ECC 56                      	push	si
  6703 00002ECD BF[F03C]                	mov	di, exec_fname
  6704 00002ED0 B90B00                  	mov	cx, 11
  6705 00002ED3 F3A6                    	repe	cmpsb
  6706 00002ED5 5E                      	pop	si
  6707 00002ED6 59                      	pop	cx
  6708 00002ED7 7408                    	je	.i21_41_found
  6709                                  .i21_41_next:
  6710 00002ED9 83C620                  	add	si, 32
  6711 00002EDC 49                      	dec	cx
  6712 00002EDD 75E2                    	jnz	.i21_41_search
  6713                                  .i21_41_not_found:
  6714 00002EDF EB47                    	jmp	.i21_41_err
  6715                                  .i21_41_found:
  6716                                  	; Save cluster, mark deleted
  6717 00002EE1 8B441A                  	mov	ax, [si+26]
  6718 00002EE4 A3[163E]                	mov	[exec_cluster], ax
  6719 00002EE7 C604E5                  	mov	byte [si], 0xE5
  6720 00002EEA E8ADE6                  	call	write_resolved_dir
  6721 00002EED 7239                    	jc	.i21_41_err
  6722                                  	; Free FAT chain
  6723 00002EEF E80BE5                  	call	read_fat
  6724 00002EF2 7234                    	jc	.i21_41_err
  6725 00002EF4 A1[163E]                	mov	ax, [exec_cluster]
  6726                                  .i21_41_free:
  6727 00002EF7 83F802                  	cmp	ax, 0x002
  6728 00002EFA 7218                    	jb	.i21_41_free_done
  6729 00002EFC 3DF80F                  	cmp	ax, 0xFF8
  6730 00002EFF 7313                    	jae	.i21_41_free_done
  6731 00002F01 50                      	push	ax
  6732 00002F02 E8F6ED                  	call	fat12_next_cluster
  6733 00002F05 A3[163E]                	mov	[exec_cluster], ax
  6734 00002F08 58                      	pop	ax
  6735 00002F09 BB0000                  	mov	bx, 0x000
  6736 00002F0C E814DF                  	call	fat12_write_cluster
  6737 00002F0F A1[163E]                	mov	ax, [exec_cluster]
  6738 00002F12 EBE3                    	jmp	.i21_41_free
  6739                                  .i21_41_free_done:
  6740 00002F14 E8FFE4                  	call	write_fat
  6741 00002F17 720F                    	jc	.i21_41_err
  6742 00002F19 1F                      	pop	ds
  6743 00002F1A 07                      	pop	es
  6744 00002F1B 5F                      	pop	di
  6745 00002F1C 5E                      	pop	si
  6746 00002F1D 59                      	pop	cx
  6747 00002F1E 5B                      	pop	bx
  6748 00002F1F 55                      	push	bp
  6749 00002F20 89E5                    	mov	bp, sp
  6750 00002F22 836606FE                	and	word [bp+6], 0xFFFE
  6751 00002F26 5D                      	pop	bp
  6752 00002F27 CF                      	iret
  6753                                  .i21_41_err:
  6754 00002F28 1F                      	pop	ds
  6755 00002F29 07                      	pop	es
  6756 00002F2A 5F                      	pop	di
  6757 00002F2B 5E                      	pop	si
  6758 00002F2C 59                      	pop	cx
  6759 00002F2D 5B                      	pop	bx
  6760 00002F2E B80200                  	mov	ax, 2			; File not found
  6761 00002F31 55                      	push	bp
  6762 00002F32 89E5                    	mov	bp, sp
  6763 00002F34 834E0601                	or	word [bp+6], 0x0001
  6764 00002F38 5D                      	pop	bp
  6765 00002F39 CF                      	iret
  6766                                  
  6767                                  ; --- AH=43: Get/set file attributes ---
  6768                                  ; Input: AL=0 get, AL=1 set, DS:DX = filename, CX = attrs (for set)
  6769                                  ; Returns: CX = attributes (for get), CF on error
  6770                                  .i21_43:
  6771 00002F3A 3C00                    	cmp	al, 0
  6772 00002F3C 7409                    	je	.i21_43_get
  6773                                  	; Set: just return success (ignore)
  6774 00002F3E 55                      	push	bp
  6775 00002F3F 89E5                    	mov	bp, sp
  6776 00002F41 836606FE                	and	word [bp+6], 0xFFFE
  6777 00002F45 5D                      	pop	bp
  6778 00002F46 CF                      	iret
  6779                                  .i21_43_get:
  6780                                  	; Return normal file attributes
  6781 00002F47 B92000                  	mov	cx, 0x0020		; Archive
  6782 00002F4A 55                      	push	bp
  6783 00002F4B 89E5                    	mov	bp, sp
  6784 00002F4D 836606FE                	and	word [bp+6], 0xFFFE
  6785 00002F51 5D                      	pop	bp
  6786 00002F52 CF                      	iret
  6787                                  
  6788                                  ; --- AH=4E: FindFirst ---
  6789                                  ; Input: DS:DX = ASCIIZ filespec (with wildcards), CX = search attributes
  6790                                  ; Returns: CF=0 and DTA filled, CF=1 AX=error
  6791                                  ; DTA format: 21 bytes reserved, 1 byte attr, 2 bytes time, 2 bytes date,
  6792                                  ;             4 bytes size, 13 bytes ASCIIZ name
  6793                                  .i21_4e:
  6794 00002F53 53                      	push	bx
  6795 00002F54 51                      	push	cx
  6796 00002F55 56                      	push	si
  6797 00002F56 57                      	push	di
  6798 00002F57 06                      	push	es
  6799 00002F58 1E                      	push	ds
  6800 00002F59 2E890E[8830]            	mov	[cs:.i21_4e_attr], cx	; Save search attributes
  6801                                  	; Copy filespec from caller's DS:DX
  6802 00002F5E 89D6                    	mov	si, dx
  6803 00002F60 1E                      	push	ds
  6804 00002F61 B80008                  	mov	ax, SHELL_SEG
  6805 00002F64 8ED8                    	mov	ds, ax
  6806 00002F66 BF[9F3C]                	mov	di, cmd_buffer
  6807 00002F69 1F                      	pop	ds
  6808 00002F6A 57                      	push	di
  6809 00002F6B B94E00                  	mov	cx, 78
  6810                                  .i21_4e_copy:
  6811 00002F6E AC                      	lodsb
  6812 00002F6F 1E                      	push	ds
  6813 00002F70 BB0008                  	mov	bx, SHELL_SEG
  6814 00002F73 8EDB                    	mov	ds, bx
  6815 00002F75 8805                    	mov	[di], al
  6816 00002F77 1F                      	pop	ds
  6817 00002F78 08C0                    	or	al, al
  6818 00002F7A 7404                    	jz	.i21_4e_copied
  6819 00002F7C 47                      	inc	di
  6820 00002F7D 49                      	dec	cx
  6821 00002F7E 75EE                    	jnz	.i21_4e_copy
  6822                                  .i21_4e_copied:
  6823 00002F80 5E                      	pop	si
  6824 00002F81 B80008                  	mov	ax, SHELL_SEG
  6825 00002F84 8ED8                    	mov	ds, ax
  6826                                  	; Parse as wildcard
  6827 00002F86 BF[FC3C]                	mov	di, wild_pattern
  6828 00002F89 E868E9                  	call	parse_wildcard
  6829                                  	; Resolve directory
  6830                                  	; For simple case: use current directory
  6831 00002F8C A0[083E]                	mov	al, [cur_drive]
  6832 00002F8F A2[0D3E]                	mov	[resolved_drive], al
  6833 00002F92 A1[C23D]                	mov	ax, [cur_dir_cluster]
  6834 00002F95 A3[093E]                	mov	[resolved_dir_cluster], ax
  6835 00002F98 A1[C43D]                	mov	ax, [cur_dir_entries]
  6836 00002F9B A3[0B3E]                	mov	[resolved_dir_entries], ax
  6837 00002F9E E8C0E5                  	call	read_resolved_dir
  6838 00002FA1 7303E9D000              	jc	.i21_4e_err
  6839                                  	; Search for first matching entry
  6840 00002FA6 BE0040                  	mov	si, dir_buffer
  6841 00002FA9 8B0E[0B3E]              	mov	cx, [resolved_dir_entries]
  6842 00002FAD 31DB                    	xor	bx, bx			; Entry index
  6843                                  .i21_4e_search:
  6844 00002FAF 8A04                    	mov	al, [si]
  6845 00002FB1 3C00                    	cmp	al, 0
  6846 00002FB3 7503E9BE00              	je	.i21_4e_not_found
  6847 00002FB8 3CE5                    	cmp	al, 0xE5
  6848 00002FBA 7503E9AD00              	je	.i21_4e_next
  6849                                  	; Check attribute filter
  6850 00002FBF 8A440B                  	mov	al, [si+11]
  6851 00002FC2 A808                    	test	al, 0x08		; Skip volume labels
  6852 00002FC4 7403E9A300              	jnz	.i21_4e_next
  6853                                  	; Match wildcard
  6854 00002FC9 BF[FC3C]                	mov	di, wild_pattern
  6855 00002FCC E8F1E9                  	call	match_wildcard
  6856 00002FCF 7303E99800              	jc	.i21_4e_next
  6857                                  	; Found a match — fill DTA
  6858                                  	; Save search state in DTA reserved area
  6859 00002FD4 2E8E06[6C3E]            	mov	es, [cs:dta_seg]
  6860 00002FD9 2E8B3E[6E3E]            	mov	di, [cs:dta_off]
  6861                                  	; Reserved bytes 0-20: save search state
  6862 00002FDE 26881D                  	mov	[es:di+0], bl		; Current entry index (low)
  6863 00002FE1 26887D01                	mov	[es:di+1], bh		; Current entry index (high)
  6864                                  	; Copy wildcard pattern to DTA for FindNext
  6865 00002FE5 56                      	push	si
  6866 00002FE6 51                      	push	cx
  6867 00002FE7 BE[FC3C]                	mov	si, wild_pattern
  6868 00002FEA B90B00                  	mov	cx, 11
  6869 00002FED 57                      	push	di
  6870 00002FEE 83C702                  	add	di, 2
  6871                                  .i21_4e_cpwild:
  6872 00002FF1 8A04                    	mov	al, [si]
  6873 00002FF3 268805                  	mov	[es:di], al
  6874 00002FF6 46                      	inc	si
  6875 00002FF7 47                      	inc	di
  6876 00002FF8 49                      	dec	cx
  6877 00002FF9 75F6                    	jnz	.i21_4e_cpwild
  6878 00002FFB 5F                      	pop	di
  6879 00002FFC 59                      	pop	cx
  6880 00002FFD 5E                      	pop	si
  6881                                  	; Attribute at offset 21
  6882 00002FFE 8A440B                  	mov	al, [si+11]
  6883 00003001 26884515                	mov	[es:di+21], al
  6884                                  	; Time at offset 22
  6885 00003005 8B4416                  	mov	ax, [si+22]
  6886 00003008 26894516                	mov	[es:di+22], ax
  6887                                  	; Date at offset 24
  6888 0000300C 8B4418                  	mov	ax, [si+24]
  6889 0000300F 26894518                	mov	[es:di+24], ax
  6890                                  	; Size at offset 26 (4 bytes)
  6891 00003013 8B441C                  	mov	ax, [si+28]
  6892 00003016 2689451A                	mov	[es:di+26], ax
  6893 0000301A 8B441E                  	mov	ax, [si+30]
  6894 0000301D 2689451C                	mov	[es:di+28], ax
  6895                                  	; Filename at offset 30 (13 bytes ASCIIZ)
  6896 00003021 57                      	push	di
  6897 00003022 83C71E                  	add	di, 30
  6898                                  	; Convert 8.3 to ASCIIZ
  6899 00003025 56                      	push	si
  6900 00003026 B90800                  	mov	cx, 8
  6901                                  .i21_4e_fname:
  6902 00003029 8A04                    	mov	al, [si]
  6903 0000302B 3C20                    	cmp	al, ' '
  6904 0000302D 7408                    	je	.i21_4e_fname_done
  6905 0000302F 268805                  	mov	[es:di], al
  6906 00003032 46                      	inc	si
  6907 00003033 47                      	inc	di
  6908 00003034 49                      	dec	cx
  6909 00003035 75F2                    	jnz	.i21_4e_fname
  6910                                  .i21_4e_fname_done:
  6911 00003037 5E                      	pop	si
  6912 00003038 56                      	push	si
  6913 00003039 83C608                  	add	si, 8			; Extension
  6914 0000303C 803C20                  	cmp	byte [si], ' '
  6915 0000303F 7416                    	je	.i21_4e_no_ext
  6916 00003041 26C6052E                	mov	byte [es:di], '.'
  6917 00003045 47                      	inc	di
  6918 00003046 B90300                  	mov	cx, 3
  6919                                  .i21_4e_ext:
  6920 00003049 8A04                    	mov	al, [si]
  6921 0000304B 3C20                    	cmp	al, ' '
  6922 0000304D 7408                    	je	.i21_4e_no_ext
  6923 0000304F 268805                  	mov	[es:di], al
  6924 00003052 46                      	inc	si
  6925 00003053 47                      	inc	di
  6926 00003054 49                      	dec	cx
  6927 00003055 75F2                    	jnz	.i21_4e_ext
  6928                                  .i21_4e_no_ext:
  6929 00003057 26C60500                	mov	byte [es:di], 0		; Null terminate
  6930 0000305B 5E                      	pop	si
  6931 0000305C 5F                      	pop	di
  6932                                  	; Success
  6933 0000305D 1F                      	pop	ds
  6934 0000305E 07                      	pop	es
  6935 0000305F 5F                      	pop	di
  6936 00003060 5E                      	pop	si
  6937 00003061 59                      	pop	cx
  6938 00003062 5B                      	pop	bx
  6939 00003063 55                      	push	bp
  6940 00003064 89E5                    	mov	bp, sp
  6941 00003066 836606FE                	and	word [bp+6], 0xFFFE
  6942 0000306A 5D                      	pop	bp
  6943 0000306B CF                      	iret
  6944                                  
  6945                                  .i21_4e_next:
  6946 0000306C 83C620                  	add	si, 32
  6947 0000306F 43                      	inc	bx
  6948 00003070 49                      	dec	cx
  6949 00003071 7403E939FF              	jnz	.i21_4e_search
  6950                                  .i21_4e_not_found:
  6951                                  .i21_4e_err:
  6952 00003076 1F                      	pop	ds
  6953 00003077 07                      	pop	es
  6954 00003078 5F                      	pop	di
  6955 00003079 5E                      	pop	si
  6956 0000307A 59                      	pop	cx
  6957 0000307B 5B                      	pop	bx
  6958 0000307C B81200                  	mov	ax, 18			; No more files
  6959 0000307F 55                      	push	bp
  6960 00003080 89E5                    	mov	bp, sp
  6961 00003082 834E0601                	or	word [bp+6], 0x0001
  6962 00003086 5D                      	pop	bp
  6963 00003087 CF                      	iret
  6964                                  
  6965 00003088 0000                    .i21_4e_attr:	dw	0
  6966                                  
  6967                                  ; --- AH=4F: FindNext ---
  6968                                  ; Uses DTA from previous FindFirst
  6969                                  ; Returns: CF=0 and DTA updated, CF=1 AX=18 if no more
  6970                                  .i21_4f:
  6971 0000308A 53                      	push	bx
  6972 0000308B 51                      	push	cx
  6973 0000308C 56                      	push	si
  6974 0000308D 57                      	push	di
  6975 0000308E 06                      	push	es
  6976 0000308F 1E                      	push	ds
  6977 00003090 B80008                  	mov	ax, SHELL_SEG
  6978 00003093 8ED8                    	mov	ds, ax
  6979                                  	; Read search state from DTA
  6980 00003095 8E06[6C3E]              	mov	es, [dta_seg]
  6981 00003099 8B3E[6E3E]              	mov	di, [dta_off]
  6982 0000309D 268A1D                  	mov	bl, [es:di+0]
  6983 000030A0 268A7D01                	mov	bh, [es:di+1]
  6984 000030A4 43                      	inc	bx			; Start from next entry
  6985                                  	; Restore wildcard pattern from DTA
  6986 000030A5 57                      	push	di
  6987 000030A6 83C702                  	add	di, 2
  6988 000030A9 BE[FC3C]                	mov	si, wild_pattern
  6989 000030AC B90B00                  	mov	cx, 11
  6990                                  .i21_4f_restore:
  6991 000030AF 268A05                  	mov	al, [es:di]
  6992 000030B2 8804                    	mov	[si], al
  6993 000030B4 46                      	inc	si
  6994 000030B5 47                      	inc	di
  6995 000030B6 49                      	dec	cx
  6996 000030B7 75F6                    	jnz	.i21_4f_restore
  6997 000030B9 5F                      	pop	di
  6998                                  	; Re-read directory (save BX — read_resolved_dir clobbers it)
  6999 000030BA 53                      	push	bx
  7000 000030BB A0[083E]                	mov	al, [cur_drive]
  7001 000030BE A2[0D3E]                	mov	[resolved_drive], al
  7002 000030C1 A1[C23D]                	mov	ax, [cur_dir_cluster]
  7003 000030C4 A3[093E]                	mov	[resolved_dir_cluster], ax
  7004 000030C7 A1[C43D]                	mov	ax, [cur_dir_entries]
  7005 000030CA A3[0B3E]                	mov	[resolved_dir_entries], ax
  7006 000030CD E891E4                  	call	read_resolved_dir
  7007 000030D0 5B                      	pop	bx
  7008 000030D1 7303E9CC00              	jc	.i21_4f_err
  7009                                  	; Restore ES:DI to DTA (read_resolved_dir clobbered ES)
  7010 000030D6 8E06[6C3E]              	mov	es, [dta_seg]
  7011 000030DA 8B3E[6E3E]              	mov	di, [dta_off]
  7012                                  	; Skip to entry BX
  7013 000030DE BE0040                  	mov	si, dir_buffer
  7014 000030E1 8B0E[0B3E]              	mov	cx, [resolved_dir_entries]
  7015                                  	; Skip BX entries
  7016 000030E5 89D8                    	mov	ax, bx
  7017 000030E7 39C8                    	cmp	ax, cx
  7018 000030E9 7203E9B400              	jae	.i21_4f_err		; Past end
  7019 000030EE 53                      	push	bx
  7020 000030EF BB2000                  	mov	bx, 32
  7021 000030F2 F7E3                    	mul	bx
  7022 000030F4 5B                      	pop	bx
  7023 000030F5 01C6                    	add	si, ax
  7024 000030F7 29D9                    	sub	cx, bx			; Remaining entries
  7025 000030F9 09C9                    	or	cx, cx
  7026 000030FB 7503E9A200              	jz	.i21_4f_err
  7027                                  	; Search from here
  7028                                  .i21_4f_search:
  7029 00003100 8A04                    	mov	al, [si]
  7030 00003102 3C00                    	cmp	al, 0
  7031 00003104 7503E99900              	je	.i21_4f_err
  7032 00003109 3CE5                    	cmp	al, 0xE5
  7033 0000310B 7503E98800              	je	.i21_4f_next
  7034 00003110 F6440B08                	test	byte [si+11], 0x08
  7035 00003114 7403E97F00              	jnz	.i21_4f_next
  7036 00003119 57                      	push	di
  7037 0000311A BF[FC3C]                	mov	di, wild_pattern
  7038 0000311D E8A0E8                  	call	match_wildcard
  7039 00003120 5F                      	pop	di
  7040 00003121 7275                    	jc	.i21_4f_next
  7041                                  	; Match — update DTA
  7042 00003123 26881D                  	mov	[es:di+0], bl		; Save entry index
  7043 00003126 26887D01                	mov	[es:di+1], bh
  7044 0000312A 8A440B                  	mov	al, [si+11]
  7045 0000312D 26884515                	mov	[es:di+21], al
  7046 00003131 8B4416                  	mov	ax, [si+22]
  7047 00003134 26894516                	mov	[es:di+22], ax
  7048 00003138 8B4418                  	mov	ax, [si+24]
  7049 0000313B 26894518                	mov	[es:di+24], ax
  7050 0000313F 8B441C                  	mov	ax, [si+28]
  7051 00003142 2689451A                	mov	[es:di+26], ax
  7052 00003146 8B441E                  	mov	ax, [si+30]
  7053 00003149 2689451C                	mov	[es:di+28], ax
  7054                                  	; Convert filename
  7055 0000314D 57                      	push	di
  7056 0000314E 83C71E                  	add	di, 30
  7057 00003151 56                      	push	si
  7058 00003152 B90800                  	mov	cx, 8
  7059                                  .i21_4f_fname:
  7060 00003155 8A04                    	mov	al, [si]
  7061 00003157 3C20                    	cmp	al, ' '
  7062 00003159 7408                    	je	.i21_4f_fname_done
  7063 0000315B 268805                  	mov	[es:di], al
  7064 0000315E 46                      	inc	si
  7065 0000315F 47                      	inc	di
  7066 00003160 49                      	dec	cx
  7067 00003161 75F2                    	jnz	.i21_4f_fname
  7068                                  .i21_4f_fname_done:
  7069 00003163 5E                      	pop	si
  7070 00003164 56                      	push	si
  7071 00003165 83C608                  	add	si, 8
  7072 00003168 803C20                  	cmp	byte [si], ' '
  7073 0000316B 7416                    	je	.i21_4f_no_ext
  7074 0000316D 26C6052E                	mov	byte [es:di], '.'
  7075 00003171 47                      	inc	di
  7076 00003172 B90300                  	mov	cx, 3
  7077                                  .i21_4f_ext:
  7078 00003175 8A04                    	mov	al, [si]
  7079 00003177 3C20                    	cmp	al, ' '
  7080 00003179 7408                    	je	.i21_4f_no_ext
  7081 0000317B 268805                  	mov	[es:di], al
  7082 0000317E 46                      	inc	si
  7083 0000317F 47                      	inc	di
  7084 00003180 49                      	dec	cx
  7085 00003181 75F2                    	jnz	.i21_4f_ext
  7086                                  .i21_4f_no_ext:
  7087 00003183 26C60500                	mov	byte [es:di], 0
  7088 00003187 5E                      	pop	si
  7089 00003188 5F                      	pop	di
  7090                                  	; Success
  7091 00003189 1F                      	pop	ds
  7092 0000318A 07                      	pop	es
  7093 0000318B 5F                      	pop	di
  7094 0000318C 5E                      	pop	si
  7095 0000318D 59                      	pop	cx
  7096 0000318E 5B                      	pop	bx
  7097 0000318F 55                      	push	bp
  7098 00003190 89E5                    	mov	bp, sp
  7099 00003192 836606FE                	and	word [bp+6], 0xFFFE
  7100 00003196 5D                      	pop	bp
  7101 00003197 CF                      	iret
  7102                                  
  7103                                  .i21_4f_next:
  7104 00003198 83C620                  	add	si, 32
  7105 0000319B 43                      	inc	bx
  7106 0000319C 49                      	dec	cx
  7107 0000319D 7403E95EFF              	jnz	.i21_4f_search
  7108                                  .i21_4f_err:
  7109 000031A2 1F                      	pop	ds
  7110 000031A3 07                      	pop	es
  7111 000031A4 5F                      	pop	di
  7112 000031A5 5E                      	pop	si
  7113 000031A6 59                      	pop	cx
  7114 000031A7 5B                      	pop	bx
  7115 000031A8 B81200                  	mov	ax, 18			; No more files
  7116 000031AB 55                      	push	bp
  7117 000031AC 89E5                    	mov	bp, sp
  7118 000031AE 834E0601                	or	word [bp+6], 0x0001
  7119 000031B2 5D                      	pop	bp
  7120 000031B3 CF                      	iret
  7121                                  
  7122                                  ; --- AH=56: Rename file ---
  7123                                  ; Input: DS:DX = old name, ES:DI = new name
  7124                                  ; Returns: CF=0 success, CF=1 AX=error
  7125                                  .i21_56:
  7126 000031B4 53                      	push	bx
  7127 000031B5 51                      	push	cx
  7128 000031B6 56                      	push	si
  7129 000031B7 57                      	push	di
  7130 000031B8 06                      	push	es
  7131 000031B9 1E                      	push	ds
  7132                                  	; Save new name pointer (ES:DI from caller)
  7133 000031BA 2E893E[A032]            	mov	[cs:.i21_56_new_off], di
  7134 000031BF 2E8C06[A232]            	mov	[cs:.i21_56_new_seg], es
  7135                                  	; Copy old filename from caller's DS:DX
  7136 000031C4 89D6                    	mov	si, dx
  7137 000031C6 1E                      	push	ds
  7138 000031C7 B80008                  	mov	ax, SHELL_SEG
  7139 000031CA 8ED8                    	mov	ds, ax
  7140 000031CC BF[9F3C]                	mov	di, cmd_buffer
  7141 000031CF 1F                      	pop	ds
  7142 000031D0 57                      	push	di
  7143 000031D1 B94E00                  	mov	cx, 78
  7144                                  .i21_56_copy_old:
  7145 000031D4 AC                      	lodsb
  7146 000031D5 1E                      	push	ds
  7147 000031D6 BB0008                  	mov	bx, SHELL_SEG
  7148 000031D9 8EDB                    	mov	ds, bx
  7149 000031DB 8805                    	mov	[di], al
  7150 000031DD 1F                      	pop	ds
  7151 000031DE 08C0                    	or	al, al
  7152 000031E0 7404                    	jz	.i21_56_old_done
  7153 000031E2 47                      	inc	di
  7154 000031E3 49                      	dec	cx
  7155 000031E4 75EE                    	jnz	.i21_56_copy_old
  7156                                  .i21_56_old_done:
  7157 000031E6 5E                      	pop	si
  7158 000031E7 B80008                  	mov	ax, SHELL_SEG
  7159 000031EA 8ED8                    	mov	ds, ax
  7160 000031EC E855E2                  	call	resolve_path
  7161 000031EF 7303E99A00              	jc	.i21_56_err
  7162                                  	; Save old 8.3 name
  7163 000031F4 BE[F03C]                	mov	si, exec_fname
  7164 000031F7 BF[2B3D]                	mov	di, copy_src_name
  7165 000031FA B90B00                  	mov	cx, 11
  7166 000031FD F3A4                    	rep	movsb
  7167                                  	; Parse new name
  7168 000031FF 8E06[A232]              	mov	es, [.i21_56_new_seg]
  7169 00003203 8B36[A032]              	mov	si, [.i21_56_new_off]
  7170                                  	; Copy new name to cmd_buffer
  7171 00003207 1E                      	push	ds
  7172 00003208 A1[A232]                	mov	ax, [.i21_56_new_seg]
  7173 0000320B 8ED8                    	mov	ds, ax
  7174 0000320D BF[9F3C]                	mov	di, cmd_buffer
  7175 00003210 BB0008                  	mov	bx, SHELL_SEG
  7176 00003213 57                      	push	di
  7177 00003214 B94E00                  	mov	cx, 78
  7178                                  .i21_56_copy_new:
  7179 00003217 AC                      	lodsb
  7180 00003218 1E                      	push	ds
  7181 00003219 8EDB                    	mov	ds, bx
  7182 0000321B 8805                    	mov	[di], al
  7183 0000321D 1F                      	pop	ds
  7184 0000321E 08C0                    	or	al, al
  7185 00003220 7404                    	jz	.i21_56_new_done
  7186 00003222 47                      	inc	di
  7187 00003223 49                      	dec	cx
  7188 00003224 75F1                    	jnz	.i21_56_copy_new
  7189                                  .i21_56_new_done:
  7190 00003226 5E                      	pop	si
  7191 00003227 1F                      	pop	ds
  7192                                  	; Parse new name into exec_fname
  7193 00003228 BF[F03C]                	mov	di, exec_fname
  7194 0000322B E80DE6                  	call	parse_83_filename
  7195                                  	; Save new 8.3 name
  7196 0000322E BE[F03C]                	mov	si, exec_fname
  7197 00003231 BF[083D]                	mov	di, ren_new_fname
  7198 00003234 B90B00                  	mov	cx, 11
  7199 00003237 F3A4                    	rep	movsb
  7200                                  	; Restore old name
  7201 00003239 BE[2B3D]                	mov	si, copy_src_name
  7202 0000323C BF[F03C]                	mov	di, exec_fname
  7203 0000323F B90B00                  	mov	cx, 11
  7204 00003242 F3A4                    	rep	movsb
  7205                                  	; Read directory, find old name, rename it
  7206 00003244 E81AE3                  	call	read_resolved_dir
  7207 00003247 7245                    	jc	.i21_56_err
  7208 00003249 BE0040                  	mov	si, dir_buffer
  7209 0000324C 8B0E[0B3E]              	mov	cx, [resolved_dir_entries]
  7210                                  .i21_56_search:
  7211 00003250 8A04                    	mov	al, [si]
  7212 00003252 3C00                    	cmp	al, 0
  7213 00003254 7438                    	je	.i21_56_err
  7214 00003256 3CE5                    	cmp	al, 0xE5
  7215 00003258 740E                    	je	.i21_56_next
  7216 0000325A 51                      	push	cx
  7217 0000325B 56                      	push	si
  7218 0000325C BF[F03C]                	mov	di, exec_fname
  7219 0000325F B90B00                  	mov	cx, 11
  7220 00003262 F3A6                    	repe	cmpsb
  7221 00003264 5E                      	pop	si
  7222 00003265 59                      	pop	cx
  7223 00003266 7408                    	je	.i21_56_found
  7224                                  .i21_56_next:
  7225 00003268 83C620                  	add	si, 32
  7226 0000326B 49                      	dec	cx
  7227 0000326C 75E2                    	jnz	.i21_56_search
  7228 0000326E EB1E                    	jmp	.i21_56_err
  7229                                  .i21_56_found:
  7230                                  	; Overwrite the 8.3 name with new name
  7231 00003270 89F7                    	mov	di, si
  7232 00003272 BE[083D]                	mov	si, ren_new_fname
  7233 00003275 B90B00                  	mov	cx, 11
  7234 00003278 F3A4                    	rep	movsb
  7235 0000327A E81DE3                  	call	write_resolved_dir
  7236 0000327D 720F                    	jc	.i21_56_err
  7237 0000327F 1F                      	pop	ds
  7238 00003280 07                      	pop	es
  7239 00003281 5F                      	pop	di
  7240 00003282 5E                      	pop	si
  7241 00003283 59                      	pop	cx
  7242 00003284 5B                      	pop	bx
  7243 00003285 55                      	push	bp
  7244 00003286 89E5                    	mov	bp, sp
  7245 00003288 836606FE                	and	word [bp+6], 0xFFFE
  7246 0000328C 5D                      	pop	bp
  7247 0000328D CF                      	iret
  7248                                  .i21_56_err:
  7249 0000328E 1F                      	pop	ds
  7250 0000328F 07                      	pop	es
  7251 00003290 5F                      	pop	di
  7252 00003291 5E                      	pop	si
  7253 00003292 59                      	pop	cx
  7254 00003293 5B                      	pop	bx
  7255 00003294 B80200                  	mov	ax, 2
  7256 00003297 55                      	push	bp
  7257 00003298 89E5                    	mov	bp, sp
  7258 0000329A 834E0601                	or	word [bp+6], 0x0001
  7259 0000329E 5D                      	pop	bp
  7260 0000329F CF                      	iret
  7261 000032A0 0000                    .i21_56_new_off:	dw	0
  7262 000032A2 0000                    .i21_56_new_seg:	dw	0
  7263                                  
  7264                                  ; --- AH=57: Get/set file date/time ---
  7265                                  ; Input: AL=0 get, AL=1 set, BX=handle
  7266                                  ; Returns: CX=time, DX=date (for get)
  7267                                  .i21_57:
  7268 000032A4 3C00                    	cmp	al, 0
  7269 000032A6 750D                    	jne	.i21_57_set
  7270                                  	; Get: return zeros (no timestamp tracking per handle)
  7271 000032A8 31C9                    	xor	cx, cx
  7272 000032AA 31D2                    	xor	dx, dx
  7273 000032AC 55                      	push	bp
  7274 000032AD 89E5                    	mov	bp, sp
  7275 000032AF 836606FE                	and	word [bp+6], 0xFFFE
  7276 000032B3 5D                      	pop	bp
  7277 000032B4 CF                      	iret
  7278                                  .i21_57_set:
  7279                                  	; Set: ignore, return success
  7280 000032B5 55                      	push	bp
  7281 000032B6 89E5                    	mov	bp, sp
  7282 000032B8 836606FE                	and	word [bp+6], 0xFFFE
  7283 000032BC 5D                      	pop	bp
  7284 000032BD CF                      	iret
  7285                                  
  7286                                  ; --- AH=0F: Open file (FCB) ---
  7287                                  ; Input: DS:DX = unopened FCB
  7288                                  ; Returns: AL=0 success, AL=FF not found
  7289                                  .i21_0f:
  7290 000032BE 53                      	push	bx
  7291 000032BF 51                      	push	cx
  7292 000032C0 56                      	push	si
  7293 000032C1 57                      	push	di
  7294 000032C2 06                      	push	es
  7295 000032C3 1E                      	push	ds
  7296                                  	; Read FCB drive, name from caller's DS:DX
  7297 000032C4 89D6                    	mov	si, dx
  7298                                  	; Get drive (0=default, 1=A, 2=B)
  7299 000032C6 8A04                    	mov	al, [si]
  7300 000032C8 08C0                    	or	al, al
  7301 000032CA 7506                    	jnz	.i21_0f_has_drive
  7302 000032CC 2EA0[083E]              	mov	al, [cs:cur_drive]
  7303 000032D0 FEC0                    	inc	al			; Make 1-based
  7304                                  .i21_0f_has_drive:
  7305 000032D2 FEC8                    	dec	al			; 0-based
  7306 000032D4 2EA2[0D3E]              	mov	[cs:resolved_drive], al
  7307                                  	; Copy 8.3 name from FCB+1 to exec_fname
  7308 000032D8 56                      	push	si
  7309 000032D9 46                      	inc	si			; Skip drive byte
  7310 000032DA 1E                      	push	ds
  7311 000032DB B80008                  	mov	ax, SHELL_SEG
  7312 000032DE 8ED8                    	mov	ds, ax
  7313 000032E0 BF[F03C]                	mov	di, exec_fname
  7314 000032E3 1F                      	pop	ds
  7315 000032E4 B90B00                  	mov	cx, 11
  7316                                  .i21_0f_copy_name:
  7317 000032E7 AC                      	lodsb
  7318 000032E8 2E8805                  	mov	[cs:di], al
  7319 000032EB 47                      	inc	di
  7320 000032EC 49                      	dec	cx
  7321 000032ED 75F8                    	jnz	.i21_0f_copy_name
  7322 000032EF 5E                      	pop	si			; SI = FCB start
  7323                                  	; Switch to shell seg
  7324 000032F0 B80008                  	mov	ax, SHELL_SEG
  7325 000032F3 8ED8                    	mov	ds, ax
  7326                                  	; Read root/current directory
  7327 000032F5 A1[C23D]                	mov	ax, [cur_dir_cluster]
  7328 000032F8 A3[093E]                	mov	[resolved_dir_cluster], ax
  7329 000032FB A1[C43D]                	mov	ax, [cur_dir_entries]
  7330 000032FE A3[0B3E]                	mov	[resolved_dir_entries], ax
  7331 00003301 E85DE2                  	call	read_resolved_dir
  7332 00003304 7227                    	jc	.i21_0f_fail
  7333                                  	; Search for file
  7334 00003306 56                      	push	si
  7335 00003307 BE0040                  	mov	si, dir_buffer
  7336 0000330A 8B0E[0B3E]              	mov	cx, [resolved_dir_entries]
  7337                                  .i21_0f_search:
  7338 0000330E 8A04                    	mov	al, [si]
  7339 00003310 3C00                    	cmp	al, 0
  7340 00003312 7418                    	je	.i21_0f_not_found
  7341 00003314 3CE5                    	cmp	al, 0xE5
  7342 00003316 740E                    	je	.i21_0f_next
  7343 00003318 51                      	push	cx
  7344 00003319 56                      	push	si
  7345 0000331A BF[F03C]                	mov	di, exec_fname
  7346 0000331D B90B00                  	mov	cx, 11
  7347 00003320 F3A6                    	repe	cmpsb
  7348 00003322 5E                      	pop	si
  7349 00003323 59                      	pop	cx
  7350 00003324 7410                    	je	.i21_0f_found
  7351                                  .i21_0f_next:
  7352 00003326 83C620                  	add	si, 32
  7353 00003329 49                      	dec	cx
  7354 0000332A 75E2                    	jnz	.i21_0f_search
  7355                                  .i21_0f_not_found:
  7356 0000332C 5E                      	pop	si
  7357                                  .i21_0f_fail:
  7358 0000332D 1F                      	pop	ds
  7359 0000332E 07                      	pop	es
  7360 0000332F 5F                      	pop	di
  7361 00003330 5E                      	pop	si
  7362 00003331 59                      	pop	cx
  7363 00003332 5B                      	pop	bx
  7364 00003333 B0FF                    	mov	al, 0xFF
  7365 00003335 CF                      	iret
  7366                                  .i21_0f_found:
  7367                                  	; Fill FCB with file info
  7368                                  	; SI = dir entry, stack has original SI (FCB pointer)
  7369 00003336 8B441C                  	mov	ax, [si+28]		; File size low
  7370 00003339 8B541E                  	mov	dx, [si+30]		; File size high
  7371 0000333C 8B5C1A                  	mov	bx, [si+26]		; Start cluster
  7372 0000333F 5E                      	pop	si			; SI = caller's FCB (in caller's DS)
  7373 00003340 1F                      	pop	ds			; Restore caller's DS
  7374                                  	; FCB+0x0C: current block = 0
  7375 00003341 C7440C0000              	mov	word [si+0x0C], 0
  7376                                  	; FCB+0x0E: record size = 128 (default)
  7377 00003346 C7440E8000              	mov	word [si+0x0E], 128
  7378                                  	; FCB+0x10: file size (4 bytes)
  7379 0000334B 894410                  	mov	[si+0x10], ax
  7380 0000334E 895412                  	mov	[si+0x12], dx
  7381                                  	; FCB+0x1A: start cluster (undocumented but used)
  7382 00003351 895C1A                  	mov	[si+0x1A], bx
  7383                                  	; FCB+0x20: current record = 0
  7384 00003354 C6442000                	mov	byte [si+0x20], 0
  7385                                  	; FCB+0x21: random record = 0
  7386 00003358 C744210000              	mov	word [si+0x21], 0
  7387 0000335D C744230000              	mov	word [si+0x23], 0
  7388 00003362 07                      	pop	es
  7389 00003363 5F                      	pop	di
  7390 00003364 5E                      	pop	si
  7391 00003365 59                      	pop	cx
  7392 00003366 5B                      	pop	bx
  7393 00003367 30C0                    	xor	al, al			; AL=0 success
  7394 00003369 CF                      	iret
  7395                                  
  7396                                  ; --- AH=10: Close file (FCB) ---
  7397                                  ; Input: DS:DX = opened FCB
  7398                                  ; Returns: AL=0 success
  7399                                  .i21_10:
  7400 0000336A 30C0                    	xor	al, al
  7401 0000336C CF                      	iret
  7402                                  
  7403                                  ; --- AH=11: Find first (FCB) ---
  7404                                  ; Input: DS:DX = FCB with filename (may contain ? wildcards)
  7405                                  ; Returns: AL=0 found (DTA filled with FCB-format result), AL=FF not found
  7406                                  .i21_11:
  7407 0000336D 53                      	push	bx
  7408 0000336E 51                      	push	cx
  7409 0000336F 56                      	push	si
  7410 00003370 57                      	push	di
  7411 00003371 06                      	push	es
  7412 00003372 1E                      	push	ds
  7413 00003373 89D6                    	mov	si, dx
  7414                                  	; Get drive
  7415 00003375 8A04                    	mov	al, [si]
  7416 00003377 08C0                    	or	al, al
  7417 00003379 7506                    	jnz	.i21_11_has_drv
  7418 0000337B 2EA0[083E]              	mov	al, [cs:cur_drive]
  7419 0000337F FEC0                    	inc	al
  7420                                  .i21_11_has_drv:
  7421 00003381 FEC8                    	dec	al
  7422 00003383 2EA2[0D3E]              	mov	[cs:resolved_drive], al
  7423                                  	; Copy search name from FCB+1 to wild_pattern
  7424 00003387 46                      	inc	si
  7425 00003388 1E                      	push	ds
  7426 00003389 B80008                  	mov	ax, SHELL_SEG
  7427 0000338C 8ED8                    	mov	ds, ax
  7428 0000338E BF[FC3C]                	mov	di, wild_pattern
  7429 00003391 1F                      	pop	ds
  7430 00003392 B90B00                  	mov	cx, 11
  7431                                  .i21_11_copy:
  7432 00003395 AC                      	lodsb
  7433 00003396 2E8805                  	mov	[cs:di], al
  7434 00003399 47                      	inc	di
  7435 0000339A 49                      	dec	cx
  7436 0000339B 75F8                    	jnz	.i21_11_copy
  7437                                  	; Switch to shell
  7438 0000339D B80008                  	mov	ax, SHELL_SEG
  7439 000033A0 8ED8                    	mov	ds, ax
  7440 000033A2 A1[C23D]                	mov	ax, [cur_dir_cluster]
  7441 000033A5 A3[093E]                	mov	[resolved_dir_cluster], ax
  7442 000033A8 A1[C43D]                	mov	ax, [cur_dir_entries]
  7443 000033AB A3[0B3E]                	mov	[resolved_dir_entries], ax
  7444 000033AE E8B0E1                  	call	read_resolved_dir
  7445 000033B1 7269                    	jc	.i21_11_fail
  7446                                  	; Search
  7447 000033B3 BE0040                  	mov	si, dir_buffer
  7448 000033B6 8B0E[0B3E]              	mov	cx, [resolved_dir_entries]
  7449 000033BA 31DB                    	xor	bx, bx
  7450                                  .i21_11_search:
  7451 000033BC 8A04                    	mov	al, [si]
  7452 000033BE 3C00                    	cmp	al, 0
  7453 000033C0 745A                    	je	.i21_11_fail
  7454 000033C2 3CE5                    	cmp	al, 0xE5
  7455 000033C4 744F                    	je	.i21_11_next
  7456 000033C6 F6440B08                	test	byte [si+11], 0x08	; Skip volume labels
  7457 000033CA 7549                    	jnz	.i21_11_next
  7458 000033CC BF[FC3C]                	mov	di, wild_pattern
  7459 000033CF E8EEE5                  	call	match_wildcard
  7460 000033D2 7241                    	jc	.i21_11_next
  7461                                  	; Found — save index for FindNext
  7462 000033D4 2E891E[2534]            	mov	[cs:.i21_11_idx], bx
  7463                                  	; Fill DTA with FCB-format result
  7464                                  	; DTA+0: drive, DTA+1-11: filename, DTA+12-31: dir entry data
  7465 000033D9 2E8E06[6C3E]            	mov	es, [cs:dta_seg]
  7466 000033DE 2E8B3E[6E3E]            	mov	di, [cs:dta_off]
  7467 000033E3 2EA0[0D3E]              	mov	al, [cs:resolved_drive]
  7468 000033E7 FEC0                    	inc	al			; 1-based
  7469 000033E9 268805                  	mov	[es:di], al
  7470                                  	; Copy 8.3 name
  7471 000033EC 56                      	push	si
  7472 000033ED 51                      	push	cx
  7473 000033EE 47                      	inc	di
  7474 000033EF B90B00                  	mov	cx, 11
  7475                                  .i21_11_cpname:
  7476 000033F2 AC                      	lodsb
  7477 000033F3 268805                  	mov	[es:di], al
  7478 000033F6 47                      	inc	di
  7479 000033F7 49                      	dec	cx
  7480 000033F8 75F8                    	jnz	.i21_11_cpname
  7481 000033FA 59                      	pop	cx
  7482 000033FB 5E                      	pop	si
  7483                                  	; Copy rest of dir entry (bytes 11-31 = 21 bytes)
  7484 000033FC 56                      	push	si
  7485 000033FD 83C60B                  	add	si, 11
  7486 00003400 B91500                  	mov	cx, 21
  7487                                  .i21_11_cprest:
  7488 00003403 AC                      	lodsb
  7489 00003404 268805                  	mov	[es:di], al
  7490 00003407 47                      	inc	di
  7491 00003408 49                      	dec	cx
  7492 00003409 75F8                    	jnz	.i21_11_cprest
  7493 0000340B 5E                      	pop	si
  7494 0000340C 1F                      	pop	ds
  7495 0000340D 07                      	pop	es
  7496 0000340E 5F                      	pop	di
  7497 0000340F 5E                      	pop	si
  7498 00003410 59                      	pop	cx
  7499 00003411 5B                      	pop	bx
  7500 00003412 30C0                    	xor	al, al
  7501 00003414 CF                      	iret
  7502                                  .i21_11_next:
  7503 00003415 83C620                  	add	si, 32
  7504 00003418 43                      	inc	bx
  7505 00003419 49                      	dec	cx
  7506 0000341A 75A0                    	jnz	.i21_11_search
  7507                                  .i21_11_fail:
  7508 0000341C 1F                      	pop	ds
  7509 0000341D 07                      	pop	es
  7510 0000341E 5F                      	pop	di
  7511 0000341F 5E                      	pop	si
  7512 00003420 59                      	pop	cx
  7513 00003421 5B                      	pop	bx
  7514 00003422 B0FF                    	mov	al, 0xFF
  7515 00003424 CF                      	iret
  7516 00003425 0000                    .i21_11_idx:	dw	0
  7517                                  
  7518                                  ; --- AH=12: Find next (FCB) ---
  7519                                  ; Returns: AL=0 found (DTA filled), AL=FF no more
  7520                                  .i21_12:
  7521 00003427 53                      	push	bx
  7522 00003428 51                      	push	cx
  7523 00003429 56                      	push	si
  7524 0000342A 57                      	push	di
  7525 0000342B 06                      	push	es
  7526 0000342C 1E                      	push	ds
  7527 0000342D B80008                  	mov	ax, SHELL_SEG
  7528 00003430 8ED8                    	mov	ds, ax
  7529 00003432 8B1E[2534]              	mov	bx, [.i21_11_idx]
  7530 00003436 43                      	inc	bx
  7531 00003437 A0[083E]                	mov	al, [cur_drive]
  7532 0000343A A2[0D3E]                	mov	[resolved_drive], al
  7533 0000343D A1[C23D]                	mov	ax, [cur_dir_cluster]
  7534 00003440 A3[093E]                	mov	[resolved_dir_cluster], ax
  7535 00003443 A1[C43D]                	mov	ax, [cur_dir_entries]
  7536 00003446 A3[0B3E]                	mov	[resolved_dir_entries], ax
  7537 00003449 53                      	push	bx
  7538 0000344A E814E1                  	call	read_resolved_dir
  7539 0000344D 5B                      	pop	bx
  7540 0000344E 7278                    	jc	.i21_12_fail
  7541                                  	; Skip to entry BX
  7542 00003450 BE0040                  	mov	si, dir_buffer
  7543 00003453 8B0E[0B3E]              	mov	cx, [resolved_dir_entries]
  7544 00003457 39CB                    	cmp	bx, cx
  7545 00003459 736D                    	jae	.i21_12_fail
  7546 0000345B 89D8                    	mov	ax, bx
  7547 0000345D 53                      	push	bx
  7548 0000345E BB2000                  	mov	bx, 32
  7549 00003461 F7E3                    	mul	bx
  7550 00003463 5B                      	pop	bx
  7551 00003464 01C6                    	add	si, ax
  7552 00003466 29D9                    	sub	cx, bx
  7553 00003468 09C9                    	or	cx, cx
  7554 0000346A 745C                    	jz	.i21_12_fail
  7555                                  .i21_12_search:
  7556 0000346C 8A04                    	mov	al, [si]
  7557 0000346E 3C00                    	cmp	al, 0
  7558 00003470 7456                    	je	.i21_12_fail
  7559 00003472 3CE5                    	cmp	al, 0xE5
  7560 00003474 744B                    	je	.i21_12_next
  7561 00003476 F6440B08                	test	byte [si+11], 0x08
  7562 0000347A 7545                    	jnz	.i21_12_next
  7563 0000347C BF[FC3C]                	mov	di, wild_pattern
  7564 0000347F E83EE5                  	call	match_wildcard
  7565 00003482 723D                    	jc	.i21_12_next
  7566                                  	; Found
  7567 00003484 891E[2534]              	mov	[.i21_11_idx], bx
  7568 00003488 8E06[6C3E]              	mov	es, [dta_seg]
  7569 0000348C 8B3E[6E3E]              	mov	di, [dta_off]
  7570 00003490 A0[0D3E]                	mov	al, [resolved_drive]
  7571 00003493 FEC0                    	inc	al
  7572 00003495 268805                  	mov	[es:di], al
  7573 00003498 56                      	push	si
  7574 00003499 51                      	push	cx
  7575 0000349A 47                      	inc	di
  7576 0000349B B90B00                  	mov	cx, 11
  7577                                  .i21_12_cpname:
  7578 0000349E AC                      	lodsb
  7579 0000349F 268805                  	mov	[es:di], al
  7580 000034A2 47                      	inc	di
  7581 000034A3 49                      	dec	cx
  7582 000034A4 75F8                    	jnz	.i21_12_cpname
  7583 000034A6 59                      	pop	cx
  7584 000034A7 5E                      	pop	si
  7585 000034A8 56                      	push	si
  7586 000034A9 83C60B                  	add	si, 11
  7587 000034AC B91500                  	mov	cx, 21
  7588                                  .i21_12_cprest:
  7589 000034AF AC                      	lodsb
  7590 000034B0 268805                  	mov	[es:di], al
  7591 000034B3 47                      	inc	di
  7592 000034B4 49                      	dec	cx
  7593 000034B5 75F8                    	jnz	.i21_12_cprest
  7594 000034B7 5E                      	pop	si
  7595 000034B8 1F                      	pop	ds
  7596 000034B9 07                      	pop	es
  7597 000034BA 5F                      	pop	di
  7598 000034BB 5E                      	pop	si
  7599 000034BC 59                      	pop	cx
  7600 000034BD 5B                      	pop	bx
  7601 000034BE 30C0                    	xor	al, al
  7602 000034C0 CF                      	iret
  7603                                  .i21_12_next:
  7604 000034C1 83C620                  	add	si, 32
  7605 000034C4 43                      	inc	bx
  7606 000034C5 49                      	dec	cx
  7607 000034C6 75A4                    	jnz	.i21_12_search
  7608                                  .i21_12_fail:
  7609 000034C8 1F                      	pop	ds
  7610 000034C9 07                      	pop	es
  7611 000034CA 5F                      	pop	di
  7612 000034CB 5E                      	pop	si
  7613 000034CC 59                      	pop	cx
  7614 000034CD 5B                      	pop	bx
  7615 000034CE B0FF                    	mov	al, 0xFF
  7616 000034D0 CF                      	iret
  7617                                  
  7618                                  ; --- AH=13: Delete file (FCB) ---
  7619                                  ; Input: DS:DX = FCB
  7620                                  ; Returns: AL=0 success, AL=FF not found
  7621                                  .i21_13:
  7622                                  	; Convert to handle-based delete
  7623 000034D1 53                      	push	bx
  7624 000034D2 51                      	push	cx
  7625 000034D3 56                      	push	si
  7626 000034D4 57                      	push	di
  7627 000034D5 06                      	push	es
  7628 000034D6 1E                      	push	ds
  7629 000034D7 89D6                    	mov	si, dx
  7630                                  	; Build ASCIIZ filename from FCB
  7631 000034D9 8A04                    	mov	al, [si]
  7632 000034DB 08C0                    	or	al, al
  7633 000034DD 7506                    	jnz	.i21_13_has_drv
  7634 000034DF 2EA0[083E]              	mov	al, [cs:cur_drive]
  7635 000034E3 FEC0                    	inc	al
  7636                                  .i21_13_has_drv:
  7637 000034E5 FEC8                    	dec	al
  7638 000034E7 2EA2[0D3E]              	mov	[cs:resolved_drive], al
  7639                                  	; Copy name to exec_fname
  7640 000034EB 46                      	inc	si
  7641 000034EC 1E                      	push	ds
  7642 000034ED B80008                  	mov	ax, SHELL_SEG
  7643 000034F0 8ED8                    	mov	ds, ax
  7644 000034F2 BF[F03C]                	mov	di, exec_fname
  7645 000034F5 1F                      	pop	ds
  7646 000034F6 B90B00                  	mov	cx, 11
  7647                                  .i21_13_cp:
  7648 000034F9 AC                      	lodsb
  7649 000034FA 2E8805                  	mov	[cs:di], al
  7650 000034FD 47                      	inc	di
  7651 000034FE 49                      	dec	cx
  7652 000034FF 75F8                    	jnz	.i21_13_cp
  7653 00003501 B80008                  	mov	ax, SHELL_SEG
  7654 00003504 8ED8                    	mov	ds, ax
  7655 00003506 A1[C23D]                	mov	ax, [cur_dir_cluster]
  7656 00003509 A3[093E]                	mov	[resolved_dir_cluster], ax
  7657 0000350C A1[C43D]                	mov	ax, [cur_dir_entries]
  7658 0000350F A3[0B3E]                	mov	[resolved_dir_entries], ax
  7659 00003512 E84CE0                  	call	read_resolved_dir
  7660 00003515 7225                    	jc	.i21_13_fail
  7661 00003517 BE0040                  	mov	si, dir_buffer
  7662 0000351A 8B0E[0B3E]              	mov	cx, [resolved_dir_entries]
  7663                                  .i21_13_search:
  7664 0000351E 8A04                    	mov	al, [si]
  7665 00003520 3C00                    	cmp	al, 0
  7666 00003522 7418                    	je	.i21_13_fail
  7667 00003524 3CE5                    	cmp	al, 0xE5
  7668 00003526 740E                    	je	.i21_13_next
  7669 00003528 51                      	push	cx
  7670 00003529 56                      	push	si
  7671 0000352A BF[F03C]                	mov	di, exec_fname
  7672 0000352D B90B00                  	mov	cx, 11
  7673 00003530 F3A6                    	repe	cmpsb
  7674 00003532 5E                      	pop	si
  7675 00003533 59                      	pop	cx
  7676 00003534 740F                    	je	.i21_13_found
  7677                                  .i21_13_next:
  7678 00003536 83C620                  	add	si, 32
  7679 00003539 49                      	dec	cx
  7680 0000353A 75E2                    	jnz	.i21_13_search
  7681                                  .i21_13_fail:
  7682 0000353C 1F                      	pop	ds
  7683 0000353D 07                      	pop	es
  7684 0000353E 5F                      	pop	di
  7685 0000353F 5E                      	pop	si
  7686 00003540 59                      	pop	cx
  7687 00003541 5B                      	pop	bx
  7688 00003542 B0FF                    	mov	al, 0xFF
  7689 00003544 CF                      	iret
  7690                                  .i21_13_found:
  7691 00003545 8B441A                  	mov	ax, [si+26]
  7692 00003548 A3[163E]                	mov	[exec_cluster], ax
  7693 0000354B C604E5                  	mov	byte [si], 0xE5
  7694 0000354E E849E0                  	call	write_resolved_dir
  7695 00003551 72E9                    	jc	.i21_13_fail
  7696 00003553 E8A7DE                  	call	read_fat
  7697 00003556 72E4                    	jc	.i21_13_fail
  7698 00003558 A1[163E]                	mov	ax, [exec_cluster]
  7699                                  .i21_13_free:
  7700 0000355B 83F802                  	cmp	ax, 2
  7701 0000355E 7218                    	jb	.i21_13_free_done
  7702 00003560 3DF80F                  	cmp	ax, 0xFF8
  7703 00003563 7313                    	jae	.i21_13_free_done
  7704 00003565 50                      	push	ax
  7705 00003566 E892E7                  	call	fat12_next_cluster
  7706 00003569 A3[163E]                	mov	[exec_cluster], ax
  7707 0000356C 58                      	pop	ax
  7708 0000356D BB0000                  	mov	bx, 0
  7709 00003570 E8B0D8                  	call	fat12_write_cluster
  7710 00003573 A1[163E]                	mov	ax, [exec_cluster]
  7711 00003576 EBE3                    	jmp	.i21_13_free
  7712                                  .i21_13_free_done:
  7713 00003578 E89BDE                  	call	write_fat
  7714 0000357B 1F                      	pop	ds
  7715 0000357C 07                      	pop	es
  7716 0000357D 5F                      	pop	di
  7717 0000357E 5E                      	pop	si
  7718 0000357F 59                      	pop	cx
  7719 00003580 5B                      	pop	bx
  7720 00003581 30C0                    	xor	al, al
  7721 00003583 CF                      	iret
  7722                                  
  7723                                  ; --- AH=14: Sequential read (FCB) ---
  7724                                  ; Input: DS:DX = opened FCB
  7725                                  ; Returns: AL=0 success, AL=1 EOF, AL=2 DTA too small, AL=3 partial
  7726                                  .i21_14:
  7727                                  	; Stub — return EOF
  7728 00003584 B001                    	mov	al, 1
  7729 00003586 CF                      	iret
  7730                                  
  7731                                  ; --- AH=15: Sequential write (FCB) ---
  7732                                  ; Input: DS:DX = opened FCB
  7733                                  ; Returns: AL=0 success, AL=1 disk full, AL=2 DTA too small
  7734                                  .i21_15:
  7735                                  	; Stub — return disk full
  7736 00003587 B001                    	mov	al, 1
  7737 00003589 CF                      	iret
  7738                                  
  7739                                  ; --- AH=16: Create file (FCB) ---
  7740                                  ; Input: DS:DX = FCB
  7741                                  ; Returns: AL=0 success, AL=FF error
  7742                                  .i21_16:
  7743                                  	; Stub — return error
  7744 0000358A B0FF                    	mov	al, 0xFF
  7745 0000358C CF                      	iret
  7746                                  
  7747                                  ; --- AH=2B: Set date ---
  7748                                  ; Input: CX=year, DH=month, DL=day
  7749                                  ; Returns: AL=0 success, AL=FF invalid
  7750                                  .i21_2b:
  7751                                  	; Validate basic ranges
  7752 0000358D 81F9BC07                	cmp	cx, 1980
  7753 00003591 7248                    	jb	.i21_2b_fail
  7754 00003593 80FE00                  	cmp	dh, 0
  7755 00003596 7443                    	je	.i21_2b_fail
  7756 00003598 80FE0C                  	cmp	dh, 12
  7757 0000359B 773E                    	ja	.i21_2b_fail
  7758 0000359D 80FA00                  	cmp	dl, 0
  7759 000035A0 7439                    	je	.i21_2b_fail
  7760 000035A2 80FA1F                  	cmp	dl, 31
  7761 000035A5 7734                    	ja	.i21_2b_fail
  7762                                  	; Set RTC date via INT 1Ah AH=05
  7763 000035A7 50                      	push	ax
  7764 000035A8 51                      	push	cx
  7765 000035A9 52                      	push	dx
  7766                                  	; Convert year to BCD century + year
  7767 000035AA 89C8                    	mov	ax, cx
  7768 000035AC 31D2                    	xor	dx, dx
  7769 000035AE B96400                  	mov	cx, 100
  7770 000035B1 F7F1                    	div	cx		; AX=century, DX=year
  7771 000035B3 52                      	push	dx
  7772 000035B4 E86300                  	call	.bin_to_bcd
  7773 000035B7 88C5                    	mov	ch, al		; Century BCD
  7774 000035B9 58                      	pop	ax
  7775 000035BA E85D00                  	call	.bin_to_bcd
  7776 000035BD 88C1                    	mov	cl, al		; Year BCD
  7777 000035BF 5A                      	pop	dx
  7778 000035C0 52                      	push	dx
  7779 000035C1 88F0                    	mov	al, dh
  7780 000035C3 E85400                  	call	.bin_to_bcd
  7781 000035C6 88C6                    	mov	dh, al		; Month BCD
  7782 000035C8 5A                      	pop	dx
  7783 000035C9 52                      	push	dx
  7784 000035CA 88D0                    	mov	al, dl
  7785 000035CC E84B00                  	call	.bin_to_bcd
  7786 000035CF 88C2                    	mov	dl, al		; Day BCD
  7787 000035D1 B405                    	mov	ah, 0x05
  7788 000035D3 CD1A                    	int	0x1A
  7789 000035D5 5A                      	pop	dx
  7790 000035D6 59                      	pop	cx
  7791 000035D7 58                      	pop	ax
  7792 000035D8 30C0                    	xor	al, al
  7793 000035DA CF                      	iret
  7794                                  .i21_2b_fail:
  7795 000035DB B0FF                    	mov	al, 0xFF
  7796 000035DD CF                      	iret
  7797                                  
  7798                                  ; --- AH=2D: Set time ---
  7799                                  ; Input: CH=hour, CL=minute, DH=second, DL=hundredths
  7800                                  ; Returns: AL=0 success, AL=FF invalid
  7801                                  .i21_2d:
  7802 000035DE 80FD17                  	cmp	ch, 23
  7803 000035E1 7734                    	ja	.i21_2d_fail
  7804 000035E3 80F93B                  	cmp	cl, 59
  7805 000035E6 772F                    	ja	.i21_2d_fail
  7806 000035E8 80FE3B                  	cmp	dh, 59
  7807 000035EB 772A                    	ja	.i21_2d_fail
  7808                                  	; Set RTC time via INT 1Ah AH=03
  7809 000035ED 50                      	push	ax
  7810 000035EE 51                      	push	cx
  7811 000035EF 52                      	push	dx
  7812 000035F0 88E8                    	mov	al, ch
  7813 000035F2 E82500                  	call	.bin_to_bcd
  7814 000035F5 88C5                    	mov	ch, al
  7815 000035F7 5A                      	pop	dx
  7816 000035F8 59                      	pop	cx
  7817 000035F9 51                      	push	cx
  7818 000035FA 52                      	push	dx
  7819 000035FB 88C8                    	mov	al, cl
  7820 000035FD E81A00                  	call	.bin_to_bcd
  7821 00003600 88C1                    	mov	cl, al
  7822 00003602 5A                      	pop	dx
  7823 00003603 52                      	push	dx
  7824 00003604 88F0                    	mov	al, dh
  7825 00003606 E81100                  	call	.bin_to_bcd
  7826 00003609 88C6                    	mov	dh, al
  7827 0000360B 30D2                    	xor	dl, dl		; DST flag = 0
  7828 0000360D B403                    	mov	ah, 0x03
  7829 0000360F CD1A                    	int	0x1A
  7830 00003611 5A                      	pop	dx
  7831 00003612 59                      	pop	cx
  7832 00003613 58                      	pop	ax
  7833 00003614 30C0                    	xor	al, al
  7834 00003616 CF                      	iret
  7835                                  .i21_2d_fail:
  7836 00003617 B0FF                    	mov	al, 0xFF
  7837 00003619 CF                      	iret
  7838                                  
  7839                                  ; Binary to BCD helper
  7840                                  .bin_to_bcd:
  7841 0000361A 51                      	push	cx
  7842 0000361B 30E4                    	xor	ah, ah
  7843 0000361D B10A                    	mov	cl, 10
  7844 0000361F F6F1                    	div	cl		; AL=tens, AH=ones
  7845 00003621 B104                    	mov	cl, 4
  7846 00003623 D2E0                    	shl	al, cl
  7847 00003625 08E0                    	or	al, ah
  7848 00003627 30E4                    	xor	ah, ah
  7849 00003629 59                      	pop	cx
  7850 0000362A C3                      	ret
  7851                                  
  7852                                  ; --- AH=26: Create new PSP ---
  7853                                  ; Input: DX = segment for new PSP
  7854                                  ; Copies current PSP to new location (simplified)
  7855                                  .i21_26:
  7856 0000362B 56                      	push	si
  7857 0000362C 57                      	push	di
  7858 0000362D 51                      	push	cx
  7859 0000362E 06                      	push	es
  7860 0000362F 1E                      	push	ds
  7861                                  	; Source = current PSP (exec_seg), dest = DX
  7862 00003630 8EC2                    	mov	es, dx
  7863 00003632 2EA1[1C3E]              	mov	ax, [cs:exec_seg]
  7864 00003636 09C0                    	or	ax, ax
  7865 00003638 7502                    	jnz	.i21_26_copy
  7866 0000363A 8CC8                    	mov	ax, cs			; Fall back to shell seg
  7867                                  .i21_26_copy:
  7868 0000363C 8ED8                    	mov	ds, ax
  7869 0000363E 31F6                    	xor	si, si
  7870 00003640 31FF                    	xor	di, di
  7871 00003642 B98000                  	mov	cx, 128
  7872 00003645 F3A5                    	rep	movsw
  7873 00003647 1F                      	pop	ds
  7874 00003648 07                      	pop	es
  7875 00003649 59                      	pop	cx
  7876 0000364A 5F                      	pop	di
  7877 0000364B 5E                      	pop	si
  7878 0000364C CF                      	iret
  7879                                  
  7880                                  ; --- AH=33: Get/set break flag ---
  7881                                  ; AL=0: get → DL=flag, AL=1: set DL=flag
  7882                                  .i21_33:
  7883 0000364D 3C00                    	cmp	al, 0
  7884 0000364F 7506                    	jne	.i21_33_set
  7885 00003651 2E8A16[2F3E]            	mov	dl, [cs:break_flag]
  7886 00003656 CF                      	iret
  7887                                  .i21_33_set:
  7888 00003657 3C01                    	cmp	al, 1
  7889 00003659 7506                    	jne	.i21_33_other
  7890 0000365B 2E8816[2F3E]            	mov	[cs:break_flag], dl
  7891 00003660 CF                      	iret
  7892                                  .i21_33_other:
  7893                                  	; AL=5: get boot drive, AL=6: DOS version (misc)
  7894 00003661 3C05                    	cmp	al, 5
  7895 00003663 7502                    	jne	.i21_33_done
  7896 00003665 B201                    	mov	dl, 1			; Boot drive = A: (1-based)
  7897                                  .i21_33_done:
  7898 00003667 CF                      	iret
  7899                                  
  7900                                  ; --- AH=37: Get/set switch character ---
  7901                                  ; AL=0: get → DL=switch char, AL=1: set DL=switch char
  7902                                  .i21_37:
  7903 00003668 3C00                    	cmp	al, 0
  7904 0000366A 7503                    	jne	.i21_37_set
  7905 0000366C B22F                    	mov	dl, '/'			; Default switch char
  7906 0000366E CF                      	iret
  7907                                  .i21_37_set:
  7908                                  	; Ignore set, return success
  7909 0000366F CF                      	iret
  7910                                  
  7911                                  ; --- AH=38: Get country info ---
  7912                                  ; Returns: BX=country code, DS:DX filled with info
  7913                                  ; Simplified: return US defaults
  7914                                  .i21_38:
  7915 00003670 3C00                    	cmp	al, 0
  7916 00003672 7515                    	jne	.i21_38_set
  7917 00003674 BB0100                  	mov	bx, 1			; Country code = USA
  7918                                  	; Fill buffer at DS:DX with US defaults
  7919 00003677 57                      	push	di
  7920 00003678 06                      	push	es
  7921 00003679 2E8E06[1C3E]            	mov	es, [cs:exec_seg]	; Caller's DS might differ
  7922                                  	; For safety, just clear CF and return
  7923 0000367E 07                      	pop	es
  7924 0000367F 5F                      	pop	di
  7925 00003680 55                      	push	bp
  7926 00003681 89E5                    	mov	bp, sp
  7927 00003683 836606FE                	and	word [bp+6], 0xFFFE
  7928 00003687 5D                      	pop	bp
  7929 00003688 CF                      	iret
  7930                                  .i21_38_set:
  7931                                  	; Set country — ignore
  7932 00003689 55                      	push	bp
  7933 0000368A 89E5                    	mov	bp, sp
  7934 0000368C 836606FE                	and	word [bp+6], 0xFFFE
  7935 00003690 5D                      	pop	bp
  7936 00003691 CF                      	iret
  7937                                  
  7938                                  ; --- AH=54: Get verify flag ---
  7939                                  ; Returns: AL = verify flag (0=off, 1=on)
  7940                                  .i21_54:
  7941 00003692 2EA0[303E]              	mov	al, [cs:verify_flag]
  7942 00003696 CF                      	iret
  7943                                  
  7944                                  ; --- AH=58: Get/set allocation strategy ---
  7945                                  ; AL=0: get → AX=strategy, AL=1: set BX=strategy
  7946                                  .i21_58:
  7947 00003697 3C00                    	cmp	al, 0
  7948 00003699 750B                    	jne	.i21_58_set
  7949 0000369B 31C0                    	xor	ax, ax			; Strategy = first fit
  7950 0000369D 55                      	push	bp
  7951 0000369E 89E5                    	mov	bp, sp
  7952 000036A0 836606FE                	and	word [bp+6], 0xFFFE
  7953 000036A4 5D                      	pop	bp
  7954 000036A5 CF                      	iret
  7955                                  .i21_58_set:
  7956                                  	; Ignore, return success
  7957 000036A6 55                      	push	bp
  7958 000036A7 89E5                    	mov	bp, sp
  7959 000036A9 836606FE                	and	word [bp+6], 0xFFFE
  7960 000036AD 5D                      	pop	bp
  7961 000036AE CF                      	iret
  7962                                  
  7963                                  ; --- AH=59: Get extended error information ---
  7964                                  ; Returns: AX=error code, BH=error class, BL=action, CH=locus
  7965                                  .i21_59:
  7966 000036AF 2EA1[313E]              	mov	ax, [cs:last_error]
  7967 000036B3 B701                    	mov	bh, 1			; Class: out of resource
  7968 000036B5 B301                    	mov	bl, 1			; Action: retry
  7969 000036B7 B501                    	mov	ch, 1			; Locus: unknown
  7970 000036B9 CF                      	iret
  7971                                  
  7972                                  ; --- AH=4C: Terminate with return code ---
  7973                                  .i21_4c:
  7974                                  	; Save return code
  7975 000036BA 30E4                    	xor	ah, ah
  7976 000036BC 2EA3[6A3E]              	mov	[cs:last_return_code], ax
  7977                                  	; Free program's memory before returning to shell
  7978                                  	; The program's PSP segment is in the current CS or was set at exec
  7979                                  	; For simplicity, free all blocks owned by PROG_SEG
  7980 000036C0 06                      	push	es
  7981 000036C1 2EA1[143E]              	mov	ax, [cs:mcb_first]
  7982                                  .i21_4c_free_loop:
  7983 000036C5 8EC0                    	mov	es, ax
  7984 000036C7 26803E00004D            	cmp	byte [es:0x00], 'M'
  7985 000036CD 740A                    	je	.i21_4c_check
  7986 000036CF 26803E00005A            	cmp	byte [es:0x00], 'Z'
  7987 000036D5 7402                    	je	.i21_4c_check
  7988 000036D7 EB25                    	jmp	.i21_4c_go		; Corrupt MCB — just exit
  7989                                  .i21_4c_check:
  7990 000036D9 26813E01000020          	cmp	word [es:0x01], PROG_SEG
  7991 000036E0 7507                    	jne	.i21_4c_next
  7992 000036E2 26C70601000000          	mov	word [es:0x01], 0	; Free it
  7993                                  .i21_4c_next:
  7994 000036E9 26803E00005A            	cmp	byte [es:0x00], 'Z'
  7995 000036EF 740A                    	je	.i21_4c_merge
  7996 000036F1 268B1E0300              	mov	bx, [es:0x03]
  7997 000036F6 01D8                    	add	ax, bx
  7998 000036F8 40                      	inc	ax
  7999 000036F9 EBCA                    	jmp	.i21_4c_free_loop
  8000                                  .i21_4c_merge:
  8001 000036FB E8C4F1                  	call	.mcb_merge_free
  8002                                  .i21_4c_go:
  8003 000036FE 07                      	pop	es
  8004                                  
  8005                                  	; Restore interrupt vectors that the program may have changed
  8006 000036FF 31C0                    	xor	ax, ax
  8007 00003701 8EC0                    	mov	es, ax
  8008                                  	; INT 20h — terminate
  8009 00003703 26C7068000[5338]        	mov	word [es:0x80], int20_handler
  8010 0000370A 26C70682000008          	mov	word [es:0x82], SHELL_SEG
  8011                                  	; INT 21h — DOS services
  8012 00003711 26C7068400[261D]        	mov	word [es:0x84], int21_handler
  8013 00003718 26C70686000008          	mov	word [es:0x86], SHELL_SEG
  8014                                  	; INT 22h — terminate address
  8015 0000371F 26C7068800[5338]        	mov	word [es:0x88], int20_handler
  8016 00003726 26C7068A000008          	mov	word [es:0x8A], SHELL_SEG
  8017                                  	; INT 23h — Ctrl-C
  8018 0000372D 26C7068C00[AE38]        	mov	word [es:0x8C], int23_handler
  8019 00003734 26C7068E000008          	mov	word [es:0x8E], SHELL_SEG
  8020                                  	; INT 24h — Critical error
  8021 0000373B 26C7069000[BF38]        	mov	word [es:0x90], int24_handler
  8022 00003742 26C70692000008          	mov	word [es:0x92], SHELL_SEG
  8023                                  
  8024                                  	; Restore shell segments
  8025 00003749 B80008                  	mov	ax, SHELL_SEG
  8026 0000374C 8ED8                    	mov	ds, ax
  8027 0000374E 8EC0                    	mov	es, ax
  8028 00003750 FA                      	cli
  8029 00003751 8ED0                    	mov	ss, ax
  8030 00003753 BCFEFF                  	mov	sp, 0xFFFE
  8031 00003756 FB                      	sti
  8032                                  
  8033                                  	; Return to shell command loop
  8034 00003757 EA[CB00]0008            	jmp	SHELL_SEG:cmd_loop
  8035                                  
  8036                                  ; ============================================================================
  8037                                  ; Utility: print null-terminated string at DS:SI
  8038                                  ; ============================================================================
  8039                                  ; ============================================================================
  8040                                  ; get_fat_timestamp — get current date/time in FAT format
  8041                                  ; Output: cur_fat_time and cur_fat_date populated
  8042                                  ; Uses INT 1Ah AH=04 (date) and AH=02 (time)
  8043                                  ; Falls back to a default if RTC not available
  8044                                  ; ============================================================================
  8045                                  get_fat_timestamp:
  8046 0000375C 50                      	push	ax
  8047 0000375D 53                      	push	bx
  8048 0000375E 51                      	push	cx
  8049 0000375F 52                      	push	dx
  8050                                  	; Try to get date from RTC
  8051 00003760 B404                    	mov	ah, 0x04
  8052 00003762 CD1A                    	int	0x1A
  8053 00003764 7230                    	jc	.gft_default		; RTC not available
  8054                                  	; CH=century BCD, CL=year BCD, DH=month BCD, DL=day BCD
  8055                                  	; Convert BCD year to binary
  8056 00003766 88C8                    	mov	al, cl
  8057 00003768 E8CE00                  	call	.bcd_to_bin
  8058 0000376B 88C3                    	mov	bl, al			; BL = year (0-99)
  8059                                  	; Convert BCD month
  8060 0000376D 88F0                    	mov	al, dh
  8061 0000376F E8C700                  	call	.bcd_to_bin
  8062 00003772 88C7                    	mov	bh, al			; BH = month
  8063                                  	; Convert BCD day
  8064 00003774 88D0                    	mov	al, dl
  8065 00003776 E8C000                  	call	.bcd_to_bin
  8066 00003779 88C1                    	mov	cl, al			; CL = day
  8067                                  	; FAT date: ((year-80) << 9) | (month << 5) | day
  8068                                  	; Assuming 2000s: year = BL + 20
  8069 0000377B 31C0                    	xor	ax, ax
  8070 0000377D 88D8                    	mov	al, bl
  8071 0000377F 83C014                  	add	ax, 20			; year since 1980
  8072 00003782 89C2                    	mov	dx, ax
  8073 00003784 B109                    	mov	cl, 9
  8074 00003786 D3E2                    	shl	dx, cl
  8075 00003788 31C0                    	xor	ax, ax
  8076 0000378A 88F8                    	mov	al, bh			; month
  8077 0000378C B105                    	mov	cl, 5
  8078 0000378E D3E0                    	shl	ax, cl
  8079 00003790 09C2                    	or	dx, ax
  8080 00003792 88C8                    	mov	al, cl			; day... wait, CL was clobbered
  8081                                  	; Let me redo this more carefully
  8082 00003794 EB00                    	jmp	.gft_default		; Punt for now, use simpler approach
  8083                                  
  8084                                  .gft_default:
  8085                                  	; Get time from RTC
  8086 00003796 B402                    	mov	ah, 0x02
  8087 00003798 CD1A                    	int	0x1A
  8088 0000379A 7303E98900              	jc	.gft_fallback
  8089                                  	; CH=hour BCD, CL=min BCD, DH=sec BCD
  8090 0000379F 88E8                    	mov	al, ch
  8091 000037A1 E89500                  	call	.bcd_to_bin
  8092 000037A4 88C3                    	mov	bl, al			; hour
  8093 000037A6 88C8                    	mov	al, cl
  8094 000037A8 E88E00                  	call	.bcd_to_bin
  8095 000037AB 88C7                    	mov	bh, al			; minute
  8096 000037AD 88F0                    	mov	al, dh
  8097 000037AF E88700                  	call	.bcd_to_bin
  8098 000037B2 88C1                    	mov	cl, al			; second
  8099                                  
  8100                                  	; FAT time: (hour << 11) | (minute << 5) | (second/2)
  8101 000037B4 31C0                    	xor	ax, ax
  8102 000037B6 88D8                    	mov	al, bl
  8103 000037B8 51                      	push	cx
  8104 000037B9 B10B                    	mov	cl, 11
  8105 000037BB D3E0                    	shl	ax, cl
  8106 000037BD 59                      	pop	cx
  8107 000037BE 50                      	push	ax
  8108 000037BF 31C0                    	xor	ax, ax
  8109 000037C1 88F8                    	mov	al, bh
  8110 000037C3 51                      	push	cx
  8111 000037C4 B105                    	mov	cl, 5
  8112 000037C6 D3E0                    	shl	ax, cl
  8113 000037C8 59                      	pop	cx
  8114 000037C9 5A                      	pop	dx
  8115 000037CA 09D0                    	or	ax, dx
  8116 000037CC D0E9                    	shr	cl, 1
  8117 000037CE 30ED                    	xor	ch, ch
  8118 000037D0 09C8                    	or	ax, cx
  8119 000037D2 A3[4F38]                	mov	[cur_fat_time], ax
  8120                                  
  8121                                  	; Get date
  8122 000037D5 B404                    	mov	ah, 0x04
  8123 000037D7 CD1A                    	int	0x1A
  8124 000037D9 7245                    	jc	.gft_date_fallback
  8125                                  	; CH=century BCD, CL=year BCD, DH=month BCD, DL=day BCD
  8126 000037DB 52                      	push	dx
  8127 000037DC 88E8                    	mov	al, ch
  8128 000037DE E85800                  	call	.bcd_to_bin
  8129 000037E1 88C3                    	mov	bl, al			; century
  8130 000037E3 88C8                    	mov	al, cl
  8131 000037E5 E85100                  	call	.bcd_to_bin
  8132                                  	; Full year = century*100 + year
  8133 000037E8 30E4                    	xor	ah, ah
  8134 000037EA 50                      	push	ax			; save year part
  8135 000037EB 31C0                    	xor	ax, ax
  8136 000037ED 88D8                    	mov	al, bl
  8137 000037EF B164                    	mov	cl, 100
  8138 000037F1 F6E1                    	mul	cl
  8139 000037F3 59                      	pop	cx			; year part
  8140 000037F4 01C8                    	add	ax, cx			; AX = full year (e.g. 2026)
  8141 000037F6 2DBC07                  	sub	ax, 1980		; years since 1980
  8142 000037F9 51                      	push	cx
  8143 000037FA B109                    	mov	cl, 9
  8144 000037FC D3E0                    	shl	ax, cl
  8145 000037FE 59                      	pop	cx
  8146 000037FF 89C3                    	mov	bx, ax			; save shifted year
  8147 00003801 5A                      	pop	dx			; restore DH=month, DL=day
  8148 00003802 88F0                    	mov	al, dh
  8149 00003804 E83200                  	call	.bcd_to_bin
  8150 00003807 30E4                    	xor	ah, ah
  8151 00003809 51                      	push	cx
  8152 0000380A B105                    	mov	cl, 5
  8153 0000380C D3E0                    	shl	ax, cl
  8154 0000380E 59                      	pop	cx
  8155 0000380F 09C3                    	or	bx, ax
  8156 00003811 88D0                    	mov	al, dl
  8157 00003813 E82300                  	call	.bcd_to_bin
  8158 00003816 30E4                    	xor	ah, ah
  8159 00003818 09C3                    	or	bx, ax
  8160 0000381A 891E[5138]              	mov	[cur_fat_date], bx
  8161 0000381E EB14                    	jmp	.gft_done
  8162                                  
  8163                                  .gft_date_fallback:
  8164 00003820 C706[5138]8E5C          	mov	word [cur_fat_date], ((2026-1980) << 9) | (4 << 5) | 14
  8165 00003826 EB0C                    	jmp	.gft_done
  8166                                  
  8167                                  .gft_fallback:
  8168 00003828 C706[4F38]0060          	mov	word [cur_fat_time], (12 << 11) | (0 << 5) | 0
  8169 0000382E C706[5138]8E5C          	mov	word [cur_fat_date], ((2026-1980) << 9) | (4 << 5) | 14
  8170                                  
  8171                                  .gft_done:
  8172 00003834 5A                      	pop	dx
  8173 00003835 59                      	pop	cx
  8174 00003836 5B                      	pop	bx
  8175 00003837 58                      	pop	ax
  8176 00003838 C3                      	ret
  8177                                  
  8178                                  .bcd_to_bin:
  8179                                  	; Convert BCD byte in AL to binary in AL
  8180 00003839 51                      	push	cx
  8181 0000383A 88C1                    	mov	cl, al
  8182 0000383C D0E8                    	shr	al, 1
  8183 0000383E D0E8                    	shr	al, 1
  8184 00003840 D0E8                    	shr	al, 1
  8185 00003842 D0E8                    	shr	al, 1
  8186 00003844 B50A                    	mov	ch, 10
  8187 00003846 F6E5                    	mul	ch
  8188 00003848 80E10F                  	and	cl, 0x0F
  8189 0000384B 00C8                    	add	al, cl
  8190 0000384D 59                      	pop	cx
  8191 0000384E C3                      	ret
  8192                                  
  8193 0000384F 0000                    cur_fat_time:	dw	0
  8194 00003851 0000                    cur_fat_date:	dw	0
  8195                                  
  8196                                  ; ============================================================================
  8197                                  ; INT 20h — Program terminate handler
  8198                                  ; ============================================================================
  8199                                  int20_handler:
  8200                                  	; Restore interrupt vectors
  8201 00003853 31C0                    	xor	ax, ax
  8202 00003855 8EC0                    	mov	es, ax
  8203 00003857 26C7068000[5338]        	mov	word [es:0x80], int20_handler
  8204 0000385E 26C70682000008          	mov	word [es:0x82], SHELL_SEG
  8205 00003865 26C7068400[261D]        	mov	word [es:0x84], int21_handler
  8206 0000386C 26C70686000008          	mov	word [es:0x86], SHELL_SEG
  8207 00003873 26C7068800[CB00]        	mov	word [es:0x88], cmd_loop
  8208 0000387A 26C7068A000008          	mov	word [es:0x8A], SHELL_SEG
  8209 00003881 26C7068C00[AE38]        	mov	word [es:0x8C], int23_handler
  8210 00003888 26C7068E000008          	mov	word [es:0x8E], SHELL_SEG
  8211 0000388F 26C7069000[BF38]        	mov	word [es:0x90], int24_handler
  8212 00003896 26C70692000008          	mov	word [es:0x92], SHELL_SEG
  8213                                  	; Restore shell state
  8214 0000389D B80008                  	mov	ax, SHELL_SEG
  8215 000038A0 8ED8                    	mov	ds, ax
  8216 000038A2 8EC0                    	mov	es, ax
  8217 000038A4 FA                      	cli
  8218 000038A5 8ED0                    	mov	ss, ax
  8219 000038A7 BCFEFF                  	mov	sp, 0xFFFE
  8220 000038AA FB                      	sti
  8221 000038AB E91DC8                  	jmp	cmd_loop
  8222                                  
  8223                                  ; ============================================================================
  8224                                  ; INT 23h — Ctrl-C handler
  8225                                  ; ============================================================================
  8226                                  ; Default handler: return to shell command loop
  8227                                  int23_handler:
  8228                                  	; Restore shell state and return to command loop
  8229 000038AE B80008                  	mov	ax, SHELL_SEG
  8230 000038B1 8ED8                    	mov	ds, ax
  8231 000038B3 8EC0                    	mov	es, ax
  8232 000038B5 FA                      	cli
  8233 000038B6 8ED0                    	mov	ss, ax
  8234 000038B8 BCFEFF                  	mov	sp, 0xFFFE
  8235 000038BB FB                      	sti
  8236 000038BC E90CC8                  	jmp	cmd_loop
  8237                                  
  8238                                  ; ============================================================================
  8239                                  ; INT 24h — Critical error handler
  8240                                  ; ============================================================================
  8241                                  ; Default handler: return AL=3 (fail the call)
  8242                                  int24_handler:
  8243 000038BF B003                    	mov	al, 3		; Fail
  8244 000038C1 CF                      	iret
  8245                                  
  8246                                  print_string:
  8247 000038C2 50                      	push	ax
  8248 000038C3 53                      	push	bx
  8249                                  .ps_loop:
  8250 000038C4 AC                      	lodsb
  8251 000038C5 08C0                    	or	al, al
  8252 000038C7 7409                    	jz	.ps_done
  8253 000038C9 B40E                    	mov	ah, 0x0E
  8254 000038CB BB0700                  	mov	bx, 0x0007
  8255 000038CE CD10                    	int	0x10
  8256 000038D0 EBF2                    	jmp	.ps_loop
  8257                                  .ps_done:
  8258 000038D2 5B                      	pop	bx
  8259 000038D3 58                      	pop	ax
  8260 000038D4 C3                      	ret
  8261                                  
  8262                                  ; ============================================================================
  8263                                  ; Utility: read line from keyboard into ES:DI
  8264                                  ; ============================================================================
  8265                                  read_line:
  8266 000038D5 50                      	push	ax
  8267 000038D6 51                      	push	cx
  8268 000038D7 B90000                  	mov	cx, 0			; Character count
  8269                                  
  8270                                  .rl_loop:
  8271 000038DA B400                    	mov	ah, 0x00
  8272 000038DC CD16                    	int	0x16			; Wait for key
  8273 000038DE 3C09                    	cmp	al, 0x09		; TAB? (ignore — used by emulator menu)
  8274 000038E0 74F8                    	je	.rl_loop
  8275 000038E2 3C0D                    	cmp	al, 0x0D		; Enter?
  8276 000038E4 742C                    	je	.rl_done
  8277 000038E6 3C08                    	cmp	al, 0x08		; Backspace?
  8278 000038E8 740D                    	je	.rl_backspace
  8279 000038EA 83F950                  	cmp	cx, MAX_CMD_LEN
  8280 000038ED 7DEB                    	jge	.rl_loop		; Buffer full
  8281                                  
  8282                                  	; Store character
  8283 000038EF AA                      	stosb
  8284 000038F0 41                      	inc	cx
  8285                                  	; Echo
  8286 000038F1 B40E                    	mov	ah, 0x0E
  8287 000038F3 CD10                    	int	0x10
  8288 000038F5 EBE3                    	jmp	.rl_loop
  8289                                  
  8290                                  .rl_backspace:
  8291 000038F7 83F900                  	cmp	cx, 0
  8292 000038FA 74DE                    	je	.rl_loop
  8293 000038FC 4F                      	dec	di
  8294 000038FD 49                      	dec	cx
  8295                                  	; Erase on screen
  8296 000038FE B008                    	mov	al, 0x08
  8297 00003900 B40E                    	mov	ah, 0x0E
  8298 00003902 CD10                    	int	0x10
  8299 00003904 B020                    	mov	al, ' '
  8300 00003906 B40E                    	mov	ah, 0x0E
  8301 00003908 CD10                    	int	0x10
  8302 0000390A B008                    	mov	al, 0x08
  8303 0000390C B40E                    	mov	ah, 0x0E
  8304 0000390E CD10                    	int	0x10
  8305 00003910 EBC8                    	jmp	.rl_loop
  8306                                  
  8307                                  .rl_done:
  8308 00003912 C60500                  	mov	byte [di], 0		; Null terminate
  8309                                  	; Print CR/LF
  8310 00003915 B00D                    	mov	al, 0x0D
  8311 00003917 B40E                    	mov	ah, 0x0E
  8312 00003919 CD10                    	int	0x10
  8313 0000391B B00A                    	mov	al, 0x0A
  8314 0000391D B40E                    	mov	ah, 0x0E
  8315 0000391F CD10                    	int	0x10
  8316 00003921 59                      	pop	cx
  8317 00003922 58                      	pop	ax
  8318 00003923 C3                      	ret
  8319                                  
  8320                                  ; ============================================================================
  8321                                  ; Utility: skip spaces at DS:SI, advance SI
  8322                                  ; ============================================================================
  8323                                  skip_spaces:
  8324 00003924 803C20                  	cmp	byte [si], ' '
  8325 00003927 7503                    	jne	.ss_done
  8326 00003929 46                      	inc	si
  8327 0000392A EBF8                    	jmp	skip_spaces
  8328                                  .ss_done:
  8329 0000392C C3                      	ret
  8330                                  
  8331                                  ; ============================================================================
  8332                                  ; Utility: compare command at SI with keyword at DI (case-insensitive)
  8333                                  ; ============================================================================
  8334                                  ; Returns ZF=1 if match. SI advanced past the command word on match.
  8335                                  str_compare_cmd:
  8336 0000392D 56                      	push	si
  8337 0000392E 57                      	push	di
  8338                                  .scc_loop:
  8339 0000392F 8A05                    	mov	al, [di]
  8340 00003931 08C0                    	or	al, al
  8341 00003933 7417                    	jz	.scc_end_keyword
  8342 00003935 8A24                    	mov	ah, [si]
  8343                                  	; Uppercase AH
  8344 00003937 80FC61                  	cmp	ah, 'a'
  8345 0000393A 7208                    	jb	.scc_no_upper
  8346 0000393C 80FC7A                  	cmp	ah, 'z'
  8347 0000393F 7703                    	ja	.scc_no_upper
  8348 00003941 80EC20                  	sub	ah, 0x20
  8349                                  .scc_no_upper:
  8350 00003944 38E0                    	cmp	al, ah
  8351 00003946 7512                    	jne	.scc_fail
  8352 00003948 46                      	inc	si
  8353 00003949 47                      	inc	di
  8354 0000394A EBE3                    	jmp	.scc_loop
  8355                                  
  8356                                  .scc_end_keyword:
  8357                                  	; Keyword matched. Check that next char in input is space, null, or CR
  8358 0000394C 8A04                    	mov	al, [si]
  8359 0000394E 3C00                    	cmp	al, 0
  8360 00003950 740D                    	je	.scc_match
  8361 00003952 3C20                    	cmp	al, ' '
  8362 00003954 7409                    	je	.scc_match
  8363 00003956 3C0D                    	cmp	al, 0x0D
  8364 00003958 7405                    	je	.scc_match
  8365                                  	; Not a word boundary — partial match
  8366                                  .scc_fail:
  8367 0000395A 5F                      	pop	di
  8368 0000395B 5E                      	pop	si
  8369 0000395C 0C01                    	or	al, 1			; Clear ZF
  8370 0000395E C3                      	ret
  8371                                  
  8372                                  .scc_match:
  8373 0000395F 5F                      	pop	di
  8374 00003960 58                      	pop	ax			; Discard saved SI — keep advanced SI
  8375 00003961 C3                      	ret
  8376                                  
  8377                                  ; ============================================================================
  8378                                  ; Utility: print 32-bit decimal number in DX:AX
  8379                                  ; ============================================================================
  8380                                  print_decimal_32:
  8381 00003962 50                      	push	ax
  8382 00003963 53                      	push	bx
  8383 00003964 51                      	push	cx
  8384 00003965 52                      	push	dx
  8385                                  
  8386                                  	; Simple approach: repeatedly divide by 10
  8387 00003966 B90000                  	mov	cx, 0			; Digit count
  8388 00003969 BB0A00                  	mov	bx, 10
  8389                                  
  8390                                  .pd_divide:
  8391                                  	; Divide DX:AX by 10
  8392 0000396C 50                      	push	ax
  8393 0000396D 89D0                    	mov	ax, dx
  8394 0000396F 31D2                    	xor	dx, dx
  8395 00003971 F7F3                    	div	bx			; AX = high / 10, DX = remainder
  8396 00003973 A3[9639]                	mov	word [.pd_temp], ax	; Save high result
  8397 00003976 58                      	pop	ax
  8398 00003977 F7F3                    	div	bx			; AX = low / 10, DX = remainder
  8399 00003979 52                      	push	dx			; Push digit (remainder)
  8400 0000397A 8B16[9639]              	mov	dx, [.pd_temp]		; Restore high result
  8401 0000397E 41                      	inc	cx
  8402                                  
  8403                                  	; Check if quotient is zero
  8404 0000397F 09C0                    	or	ax, ax
  8405 00003981 75E9                    	jnz	.pd_divide
  8406 00003983 09D2                    	or	dx, dx
  8407 00003985 75E5                    	jnz	.pd_divide
  8408                                  
  8409                                  	; Print digits
  8410                                  .pd_print:
  8411 00003987 58                      	pop	ax
  8412 00003988 0430                    	add	al, '0'
  8413 0000398A B40E                    	mov	ah, 0x0E
  8414 0000398C CD10                    	int	0x10
  8415 0000398E 49                      	dec	cx
  8416 0000398F 75F6                    	jnz	.pd_print
  8417                                  
  8418 00003991 5A                      	pop	dx
  8419 00003992 59                      	pop	cx
  8420 00003993 5B                      	pop	bx
  8421 00003994 58                      	pop	ax
  8422 00003995 C3                      	ret
  8423                                  
  8424 00003996 0000                    .pd_temp	dw	0
  8425                                  
  8426                                  ; ============================================================================
  8427                                  ; Data
  8428                                  ; ============================================================================
  8429 00003998 57656C636F6D652074-     msg_banner	db	'Welcome to MegaDOS v1.0', 0x0D, 0x0A
  8429 000039A1 6F204D656761444F53-
  8429 000039AA 2076312E300D0A     
  8430 000039B1 466F7220746865204D-     		db	'For the Mega65 Personal Computer', 0x0D, 0x0A
  8430 000039BA 656761363520506572-
  8430 000039C3 736F6E616C20436F6D-
  8430 000039CC 70757465720D0A     
  8431 000039D3 4120667265652C206C-     		db	'A free, lightweight MS-DOS compatible OS', 0x0D, 0x0A, 0
  8431 000039DC 696768747765696768-
  8431 000039E5 74204D532D444F5320-
  8431 000039EE 636F6D70617469626C-
  8431 000039F7 65204F530D0A00     
  8432                                  
  8433                                  ; (msg_prompt removed — prompt is now built dynamically with path)
  8434                                  
  8435 000039FE 2062797465730D0A00      msg_bytes	db	' bytes', 0x0D, 0x0A, 0
  8436                                  
  8437 00003A07 2066696C652873290D-     msg_files	db	' file(s)', 0x0D, 0x0A, 0
  8437 00003A10 0A00               
  8438 00003A12 2046696C6528732920-     msg_files_fmt	db	' File(s)      ', 0
  8438 00003A1B 202020202000       
  8439 00003A21 206279746573206672-     msg_bytes_free	db	' bytes free', 0x0D, 0x0A, 0
  8439 00003A2A 65650D0A00         
  8440 00003A2F 496E73756666696369-     msg_no_mem	db	'Insufficient memory', 0x0D, 0x0A, 0
  8440 00003A38 656E74206D656D6F72-
  8440 00003A41 790D0A00           
  8441                                  
  8442 00003A45 46696C65206E6F7420-     msg_not_found	db	'File not found', 0x0D, 0x0A, 0
  8442 00003A4E 666F756E640D0A00   
  8443 00003A56 42616420636F6D6D61-     msg_bad_cmd	db	'Bad command or file name', 0x0D, 0x0A, 0
  8443 00003A5F 6E64206F722066696C-
  8443 00003A68 65206E616D650D0A00 
  8444 00003A71 496E76616C69642064-     msg_invalid_dir	db	'Invalid directory', 0x0D, 0x0A, 0
  8444 00003A7A 69726563746F72790D-
  8444 00003A83 0A00               
  8445                                  
  8446 00003A85 4469736B2072656164-     msg_disk_err	db	'Disk read error', 0x0D, 0x0A, 0
  8446 00003A8E 206572726F720D0A00 
  8447 00003A97 526571756972656420-     msg_need_fname	db	'Required parameter missing', 0x0D, 0x0A, 0
  8447 00003AA0 706172616D65746572-
  8447 00003AA9 206D697373696E670D-
  8447 00003AB2 0A00               
  8448 00003AB4 46696C652064656C65-     msg_deleted	db	'File deleted', 0x0D, 0x0A, 0
  8448 00003ABD 7465640D0A00       
  8449 00003AC3 46696C652072656E61-     msg_renamed	db	'File renamed', 0x0D, 0x0A, 0
  8449 00003ACC 6D65640D0A00       
  8450 00003AD2 55736167653A205245-     msg_ren_usage	db	'Usage: REN oldname newname', 0x0D, 0x0A, 0
  8450 00003ADB 4E206F6C646E616D65-
  8450 00003AE4 206E65776E616D650D-
  8450 00003AED 0A00               
  8451 00003AEF 4475706C6963617465-     msg_ren_exists	db	'Duplicate file name or File not found', 0x0D, 0x0A, 0
  8451 00003AF8 2066696C65206E616D-
  8451 00003B01 65206F722046696C65-
  8451 00003B0A 206E6F7420666F756E-
  8451 00003B13 640D0A00           
  8452 00003B17 556E61626C6520746F-     msg_mkdir_exists db	'Unable to create directory', 0x0D, 0x0A, 0
  8452 00003B20 206372656174652064-
  8452 00003B29 69726563746F72790D-
  8452 00003B32 0A00               
  8453 00003B34 55736167653A20434F-     msg_copy_usage	db	'Usage: COPY source dest', 0x0D, 0x0A, 0
  8453 00003B3D 505920736F75726365-
  8453 00003B46 20646573740D0A00   
  8454 00003B4E 202020202020202000      msg_copy_ok1	db	'        ', 0
  8455 00003B57 206279746528732920-     msg_copy_ok2	db	' byte(s) copied', 0x0D, 0x0A, 0
  8455 00003B60 636F706965640D0A00 
  8456 00003B69 496E73756666696369-     msg_disk_full	db	'Insufficient disk space', 0x0D, 0x0A, 0
  8456 00003B72 656E74206469736B20-
  8456 00003B7B 73706163650D0A00   
  8457 00003B83 4469726563746F7279-     msg_dir_full	db	'Directory full', 0x0D, 0x0A, 0
  8457 00003B8C 2066756C6C0D0A00   
  8458 00003B94 4469726563746F7279-     msg_mkdir_ok	db	'Directory created', 0x0D, 0x0A, 0
  8458 00003B9D 20637265617465640D-
  8458 00003BA6 0A00               
  8459 00003BA8 4469726563746F7279-     msg_rmdir_ok	db	'Directory removed', 0x0D, 0x0A, 0
  8459 00003BB1 2072656D6F7665640D-
  8459 00003BBA 0A00               
  8460 00003BBC 4469726563746F7279-     msg_rmdir_not_empty db	'Directory not empty', 0x0D, 0x0A, 0
  8460 00003BC5 206E6F7420656D7074-
  8460 00003BCE 790D0A00           
  8461 00003BD2 507265737320616E79-     msg_pause	db	'Press any key to continue...', 0
  8461 00003BDB 206B657920746F2063-
  8461 00003BE4 6F6E74696E75652E2E-
  8461 00003BED 2E00               
  8462                                  
  8463 00003BEF 4155544F455845432E-     autoexec_name	db	'AUTOEXEC.BAT', 0
  8463 00003BF8 42415400           
  8464 00003BFC 0D0A4D656761444F53-     msg_ver		db	0x0D, 0x0A, 'MegaDOS Version 1.0', 0x0D, 0x0A, 0
  8464 00003C05 2056657273696F6E20-
  8464 00003C0E 312E300D0A00       
  8465 00003C14 4D656761444F532076-     msg_ver_short	db	'MegaDOS v1.0', 0x0D, 0x0A, 0
  8465 00003C1D 312E300D0A00       
  8466 00003C23 5C00                    msg_cd_root	db	'\', 0
  8467 00003C25 20203C4449523E0D0A-     msg_dir_tag	db	'  <DIR>', 0x0D, 0x0A, 0
  8467 00003C2E 00                 
  8468 00003C2F 203C4449523E202020-     msg_dir_tag_fmt	db	' <DIR>       ', 0
  8468 00003C38 2020202000         
  8469 00003C3D 20566F6C756D652069-     msg_vol_hdr	db	' Volume in drive has no label', 0x0D, 0x0A, 0
  8469 00003C46 6E2064726976652068-
  8469 00003C4F 6173206E6F206C6162-
  8469 00003C58 656C0D0A00         
  8470 00003C5D 204469726563746F72-     msg_dir_of	db	' Directory of  ', 0
  8470 00003C66 79206F66202000     
  8471                                  
  8472 00003C6D 44495200                cmd_dir		db	'DIR', 0
  8473 00003C71 4543484F00              cmd_echo	db	'ECHO', 0
  8474 00003C76 434C5300                cmd_cls		db	'CLS', 0
  8475 00003C7A 56455200                cmd_ver		db	'VER', 0
  8476 00003C7E 5459504500              cmd_type	db	'TYPE', 0
  8477 00003C83 44454C00                cmd_del		db	'DEL', 0
  8478 00003C87 52454E00                cmd_ren		db	'REN', 0
  8479 00003C8B 434F505900              cmd_copy	db	'COPY', 0
  8480 00003C90 434400                  cmd_cd		db	'CD', 0
  8481 00003C93 4D4B44495200            cmd_mkdir	db	'MKDIR', 0
  8482 00003C99 524D44495200            cmd_rmdir	db	'RMDIR', 0
  8483                                  
  8484                                  ; ============================================================================
  8485                                  ; Variables
  8486                                  ; ============================================================================
  8487 00003C9F 00<rep 51h>             cmd_buffer:	times MAX_CMD_LEN+1 db 0
  8488 00003CF0 20<rep Bh>              exec_fname:	times 11 db ' '
  8489 00003CFB 00                      		db	0		; null terminator
  8490 00003CFC 20<rep Bh>              wild_pattern:	times 11 db ' '		; wildcard pattern for DIR/DEL
  8491 00003D07 00                      wild_active:	db	0		; 1 = wildcard filter active
  8492 00003D08 20<rep Bh>              ren_new_fname:	times 11 db ' '
  8493 00003D13 00                      		db	0
  8494 00003D14 0000                    cmd_char_count:	dw	0
  8495 00003D16 0000                    copy_src_cl:	dw	0
  8496 00003D18 0000                    copy_dest_cl:	dw	0
  8497 00003D1A 0000                    copy_prev_cl:	dw	0
  8498 00003D1C 0000                    copy_first_cl:	dw	0
  8499 00003D1E 0000                    copy_dest_dir:	dw	0
  8500 00003D20 00                      copy_src_attr:	db	0
  8501 00003D21 0000                    copy_src_dir_cl: dw	0
  8502 00003D23 0000                    copy_src_dir_ent: dw	0
  8503 00003D25 0000                    copy_dst_dir_cl: dw	0
  8504 00003D27 0000                    copy_dst_dir_ent: dw	0
  8505 00003D29 00                      copy_src_drv:	db	0
  8506 00003D2A 00                      copy_dst_drv:	db	0
  8507 00003D2B 20<rep Bh>              copy_src_name:	times 11 db ' '
  8508                                  ; Per-drive current directory state
  8509                                  ; Drive A (index 0)
  8510 00003D36 0000                    drv_a_cluster:	dw	0
  8511 00003D38 7000                    drv_a_entries:	dw	112
  8512 00003D3A 00<rep 41h>             drv_a_path:	times 65 db 0
  8513 00003D7B 00                      drv_a_pathlen:	db	0
  8514                                  ; Drive B (index 1)
  8515 00003D7C 0000                    drv_b_cluster:	dw	0
  8516 00003D7E 7000                    drv_b_entries:	dw	112
  8517 00003D80 00<rep 41h>             drv_b_path:	times 65 db 0
  8518 00003DC1 00                      drv_b_pathlen:	db	0
  8519                                  ; Active drive and current dir pointers (copied from per-drive on switch)
  8520 00003DC2 0000                    cur_dir_cluster: dw	0
  8521 00003DC4 7000                    cur_dir_entries: dw	112
  8522 00003DC6 00<rep 41h>             cur_dir_path:	times 65 db 0
  8523 00003E07 00                      cur_dir_pathlen: db	0
  8524 00003E08 00                      cur_drive:	db	0		; Current drive (0=A, 1=B)
  8525 00003E09 0000                    resolved_dir_cluster: dw 0
  8526 00003E0B 7000                    resolved_dir_entries: dw 112
  8527 00003E0D 00                      resolved_drive:	db	0		; Drive for resolved path
  8528 00003E0E 00                      batch_active:	db	0		; Nonzero if executing a batch file
  8529 00003E0F 0000                    batch_ptr:	dw	0		; Current position in batch buffer
  8530 00003E11 0000                    batch_end:	dw	0		; End of batch data
  8531 00003E13 01                      batch_echo:	db	1		; Batch echo state (1=on, 0=off)
  8532 00003E14 0020                    mcb_first:	dw	PROG_SEG	; First MCB segment
  8533 00003E16 0000                    exec_cluster:	dw	0
  8534 00003E18 00000000                exec_size:	dd	0
  8535 00003E1C 0000                    exec_seg:	dw	0		; Allocated segment for program
  8536 00003E1E 0000                    		dw	0		; CS for EXE far jump
  8537 00003E20 0000                    		dw	0		; IP for EXE far jump
  8538 00003E22 0000                    exe_hdr_size:	dw	0
  8539 00003E24 0000                    exe_load_seg:	dw	0
  8540 00003E26 0001                    exec_jmp_ip:	dw	0x0100		; For far jump to program
  8541 00003E28 0000                    exec_jmp_cs:	dw	0
  8542 00003E2A 00                      exec_try_ext:	db	0		; 0=done, 1=try EXE, 2=try BAT
  8543 00003E2B 0000                    exec_cmdtail_ptr: dw	0		; Pointer to command tail in cmd_buffer
  8544 00003E2D 0000                    env_seg:	dw	0		; Segment of environment block
  8545 00003E2F 00                      break_flag:	db	0		; Ctrl-C check flag
  8546 00003E30 00                      verify_flag:	db	0		; Disk verify flag
  8547 00003E31 0000                    last_error:	dw	0		; Last extended error code
  8548                                  
  8549                                  ; Environment string data
  8550 00003E33 434F4D535045433D41-     env_comspec:	db	'COMSPEC=A:\SHELL.COM', 0
  8550 00003E3C 3A5C5348454C4C2E43-
  8550 00003E45 4F4D00             
  8551 00003E48 504154483D413A5C00      env_path:	db	'PATH=A:\', 0
  8552 00003E51 50524F4D50543D2450-     env_prompt:	db	'PROMPT=$P$G', 0
  8552 00003E5A 244700             
  8553 00003E5D 413A5C5348454C4C2E-     env_progname:	db	'A:\SHELL.COM', 0
  8553 00003E66 434F4D00           
  8554 00003E6A 0000                    last_return_code: dw	0		; Return code from last AH=4C
  8555 00003E6C 0000                    dta_seg:	dw	0		; DTA segment (default: PSP:0080)
  8556 00003E6E 8000                    dta_off:	dw	0x0080		; DTA offset
  8557                                  
  8558                                  ; File handle table — 8 handles (0-7), each 16 bytes
  8559                                  ; Handles 0-4 are predefined (stdin/stdout/stderr/stdaux/stdprn)
  8560                                  MAX_HANDLES	equ	8
  8561                                  FH_SIZE		equ	16		; Bytes per handle entry
  8562                                  
  8563                                  ; Handle entry layout:
  8564                                  ;   +0: flags (0=closed, 1=open read, 2=open write, 3=open r/w, 0x80=device)
  8565                                  ;   +1: drive (0=A, 1=B)
  8566                                  ;   +2-3: start cluster
  8567                                  ;   +4-5: current cluster
  8568                                  ;   +6-7: position within current cluster (byte offset)
  8569                                  ;   +8-11: file pointer (32-bit absolute position)
  8570                                  ;   +12-15: file size (32-bit)
  8571                                  
  8572                                  file_handles:
  8573                                  	; Handle 0: stdin (device)
  8574 00003E70 800000000000000000-     	db	0x80, 0, 0,0, 0,0, 0,0, 0,0,0,0, 0,0,0,0
  8574 00003E79 00000000000000     
  8575                                  	; Handle 1: stdout (device)
  8576 00003E80 800000000000000000-     	db	0x80, 0, 0,0, 0,0, 0,0, 0,0,0,0, 0,0,0,0
  8576 00003E89 00000000000000     
  8577                                  	; Handle 2: stderr (device)
  8578 00003E90 800000000000000000-     	db	0x80, 0, 0,0, 0,0, 0,0, 0,0,0,0, 0,0,0,0
  8578 00003E99 00000000000000     
  8579                                  	; Handle 3: stdaux (device)
  8580 00003EA0 800000000000000000-     	db	0x80, 0, 0,0, 0,0, 0,0, 0,0,0,0, 0,0,0,0
  8580 00003EA9 00000000000000     
  8581                                  	; Handle 4: stdprn (device)
  8582 00003EB0 800000000000000000-     	db	0x80, 0, 0,0, 0,0, 0,0, 0,0,0,0, 0,0,0,0
  8582 00003EB9 00000000000000     
  8583                                  	; Handles 5-7: available for files
  8584 00003EC0 00<rep 30h>             	times (MAX_HANDLES - 5) * FH_SIZE db 0
  8585 00003EF0 0000                    file_count:	dw	0
  8586 00003EF2 00                      dir_wide:	db	0
  8587 00003EF3 00                      dir_col:	db	0			; Column counter for wide mode
  8588 00003EF4 00<rep 41h>             dir_hdr_path:	times 65 db 0			; Path string for DIR header display
  8589                                  
  8590                                  ; ============================================================================
  8591                                  ; Buffers (must be after all code/data)
  8592                                  ; ============================================================================
  8593                                  		; Buffers at fixed high address in SHELL_SEG — well past code/data
  8594                                  dir_buffer	equ	0x4000			; Fixed at SHELL_SEG:4000
  8595                                  fat_buffer	equ	dir_buffer + (ROOT_DIR_SECS * 512)  ; At SHELL_SEG:4E00
  8596                                  batch_buffer	equ	fat_buffer + (2 * 512)		    ; At SHELL_SEG:5600 (max ~8KB batch file)
  8597                                  		; FAT: 2 * 512 = 1024 bytes
